ARM GAS  /tmp/ccYP3GbG.s 			page 1


   1              		.cpu cortex-m3
   2              		.eabi_attribute 20, 1
   3              		.eabi_attribute 21, 1
   4              		.eabi_attribute 23, 3
   5              		.eabi_attribute 24, 1
   6              		.eabi_attribute 25, 1
   7              		.eabi_attribute 26, 1
   8              		.eabi_attribute 30, 1
   9              		.eabi_attribute 34, 1
  10              		.eabi_attribute 18, 4
  11              		.file	"dcdc.c"
  12              		.text
  13              	.Ltext0:
  14              		.cfi_sections	.debug_frame
  15              		.section	.text.dcdcInit,"ax",%progbits
  16              		.align	1
  17              		.global	dcdcInit
  18              		.syntax unified
  19              		.thumb
  20              		.thumb_func
  21              		.fpu softvfp
  23              	dcdcInit:
  24              	.LFB66:
  25              		.file 1 "Core/Src/dcdc.c"
   1:Core/Src/dcdc.c **** #include "dcdc.h"
   2:Core/Src/dcdc.c **** 
   3:Core/Src/dcdc.c **** 
   4:Core/Src/dcdc.c **** void dcdcInit(void)
   5:Core/Src/dcdc.c **** {
  26              		.loc 1 5 0
  27              		.cfi_startproc
  28              		@ args = 0, pretend = 0, frame = 0
  29              		@ frame_needed = 0, uses_anonymous_args = 0
  30 0000 08B5     		push	{r3, lr}
  31              		.cfi_def_cfa_offset 8
  32              		.cfi_offset 3, -8
  33              		.cfi_offset 14, -4
   6:Core/Src/dcdc.c ****     time_now = HAL_GetTick();
  34              		.loc 1 6 0
  35 0002 FFF7FEFF 		bl	HAL_GetTick
  36              	.LVL0:
  37 0006 044B     		ldr	r3, .L3
  38 0008 1860     		str	r0, [r3]
   7:Core/Src/dcdc.c ****     period = 1200000; // 20 minute recharge period
  39              		.loc 1 7 0
  40 000a 044A     		ldr	r2, .L3+4
  41 000c 044B     		ldr	r3, .L3+8
  42 000e 1A60     		str	r2, [r3]
   8:Core/Src/dcdc.c ****     tenderActive = false;
  43              		.loc 1 8 0
  44 0010 0022     		movs	r2, #0
  45 0012 044B     		ldr	r3, .L3+12
  46 0014 1A70     		strb	r2, [r3]
  47 0016 08BD     		pop	{r3, pc}
  48              	.L4:
  49              		.align	2
  50              	.L3:
ARM GAS  /tmp/ccYP3GbG.s 			page 2


  51 0018 00000000 		.word	time_now
  52 001c 804F1200 		.word	1200000
  53 0020 00000000 		.word	period
  54 0024 00000000 		.word	tenderActive
  55              		.cfi_endproc
  56              	.LFE66:
  58              		.section	.text.dcdc_OFF,"ax",%progbits
  59              		.align	1
  60              		.global	dcdc_OFF
  61              		.syntax unified
  62              		.thumb
  63              		.thumb_func
  64              		.fpu softvfp
  66              	dcdc_OFF:
  67              	.LFB67:
   9:Core/Src/dcdc.c **** 
  10:Core/Src/dcdc.c **** }
  11:Core/Src/dcdc.c **** 
  12:Core/Src/dcdc.c **** void dcdc_OFF(void)
  13:Core/Src/dcdc.c **** {
  68              		.loc 1 13 0
  69              		.cfi_startproc
  70              		@ args = 0, pretend = 0, frame = 0
  71              		@ frame_needed = 0, uses_anonymous_args = 0
  72 0000 08B5     		push	{r3, lr}
  73              		.cfi_def_cfa_offset 8
  74              		.cfi_offset 3, -8
  75              		.cfi_offset 14, -4
  14:Core/Src/dcdc.c ****     txMsg.StdId = 0x1D4;
  76              		.loc 1 14 0
  77 0002 0648     		ldr	r0, .L7
  78 0004 4FF4EA73 		mov	r3, #468
  79 0008 0360     		str	r3, [r0]
  15:Core/Src/dcdc.c ****     txMsg.DLC = 2;
  80              		.loc 1 15 0
  81 000a 0223     		movs	r3, #2
  82 000c 0361     		str	r3, [r0, #16]
  16:Core/Src/dcdc.c ****     canTx[0] = 0x00;
  83              		.loc 1 16 0
  84 000e 0449     		ldr	r1, .L7+4
  85 0010 0023     		movs	r3, #0
  86 0012 0B70     		strb	r3, [r1]
  17:Core/Src/dcdc.c ****     canTx[1] = 0x00;
  87              		.loc 1 17 0
  88 0014 4B70     		strb	r3, [r1, #1]
  18:Core/Src/dcdc.c ****     c1tx(&txMsg, canTx);
  89              		.loc 1 18 0
  90 0016 FFF7FEFF 		bl	c1tx
  91              	.LVL1:
  92 001a 08BD     		pop	{r3, pc}
  93              	.L8:
  94              		.align	2
  95              	.L7:
  96 001c 00000000 		.word	txMsg
  97 0020 00000000 		.word	canTx
  98              		.cfi_endproc
  99              	.LFE67:
ARM GAS  /tmp/ccYP3GbG.s 			page 3


 101              		.section	.text.dcdc_ON,"ax",%progbits
 102              		.align	1
 103              		.global	dcdc_ON
 104              		.syntax unified
 105              		.thumb
 106              		.thumb_func
 107              		.fpu softvfp
 109              	dcdc_ON:
 110              	.LFB68:
  19:Core/Src/dcdc.c **** }
  20:Core/Src/dcdc.c **** 
  21:Core/Src/dcdc.c **** void dcdc_ON(void)
  22:Core/Src/dcdc.c **** {
 111              		.loc 1 22 0
 112              		.cfi_startproc
 113              		@ args = 0, pretend = 0, frame = 0
 114              		@ frame_needed = 0, uses_anonymous_args = 0
 115 0000 08B5     		push	{r3, lr}
 116              		.cfi_def_cfa_offset 8
 117              		.cfi_offset 3, -8
 118              		.cfi_offset 14, -4
  23:Core/Src/dcdc.c ****     txMsg.StdId = 0x1D4;
 119              		.loc 1 23 0
 120 0002 0748     		ldr	r0, .L11
 121 0004 4FF4EA73 		mov	r3, #468
 122 0008 0360     		str	r3, [r0]
  24:Core/Src/dcdc.c ****     txMsg.DLC = 2;
 123              		.loc 1 24 0
 124 000a 0223     		movs	r3, #2
 125 000c 0361     		str	r3, [r0, #16]
  25:Core/Src/dcdc.c ****     canTx[0] = 0xA0;
 126              		.loc 1 25 0
 127 000e 0549     		ldr	r1, .L11+4
 128 0010 A023     		movs	r3, #160
 129 0012 0B70     		strb	r3, [r1]
  26:Core/Src/dcdc.c ****     canTx[1] = 0xBA;
 130              		.loc 1 26 0
 131 0014 BA23     		movs	r3, #186
 132 0016 4B70     		strb	r3, [r1, #1]
  27:Core/Src/dcdc.c ****     c1tx(&txMsg, canTx);
 133              		.loc 1 27 0
 134 0018 FFF7FEFF 		bl	c1tx
 135              	.LVL2:
 136 001c 08BD     		pop	{r3, pc}
 137              	.L12:
 138 001e 00BF     		.align	2
 139              	.L11:
 140 0020 00000000 		.word	txMsg
 141 0024 00000000 		.word	canTx
 142              		.cfi_endproc
 143              	.LFE68:
 145              		.section	.text.dcdc_DATA,"ax",%progbits
 146              		.align	1
 147              		.global	dcdc_DATA
 148              		.syntax unified
 149              		.thumb
 150              		.thumb_func
ARM GAS  /tmp/ccYP3GbG.s 			page 4


 151              		.fpu softvfp
 153              	dcdc_DATA:
 154              	.LFB69:
  28:Core/Src/dcdc.c **** }
  29:Core/Src/dcdc.c **** 
  30:Core/Src/dcdc.c **** void dcdc_DATA(CAN_RxHeaderTypeDef *rxMsg, uint8_t *canRx)
  31:Core/Src/dcdc.c **** {
 155              		.loc 1 31 0
 156              		.cfi_startproc
 157              		@ args = 0, pretend = 0, frame = 0
 158              		@ frame_needed = 0, uses_anonymous_args = 0
 159              		@ link register save eliminated.
 160              	.LVL3:
  32:Core/Src/dcdc.c ****     if (rxMsg->StdId == 0x1D6)
 161              		.loc 1 32 0
 162 0000 0368     		ldr	r3, [r0]
 163 0002 B3F5EB7F 		cmp	r3, #470
 164 0006 00D0     		beq	.L15
 165              	.LVL4:
 166              	.L13:
 167 0008 7047     		bx	lr
 168              	.LVL5:
 169              	.L15:
  33:Core/Src/dcdc.c ****     {
  34:Core/Src/dcdc.c ****         DCDC.volts = (canRx[2] / 12); // 12 was 12.7
 170              		.loc 1 34 0
 171 000a 8B78     		ldrb	r3, [r1, #2]	@ zero_extendqisi2
 172 000c 074A     		ldr	r2, .L16
 173 000e 0848     		ldr	r0, .L16+4
 174              	.LVL6:
 175 0010 A0FB0303 		umull	r0, r3, r0, r3
 176 0014 DB08     		lsrs	r3, r3, #3
 177 0016 1370     		strb	r3, [r2]
  35:Core/Src/dcdc.c ****         DCDC.temp1 = (((canRx[3] - 40) * 1) + 32); //1 was 1.8 
 178              		.loc 1 35 0
 179 0018 CB78     		ldrb	r3, [r1, #3]	@ zero_extendqisi2
 180 001a 083B     		subs	r3, r3, #8
 181 001c 5370     		strb	r3, [r2, #1]
  36:Core/Src/dcdc.c ****         DCDC.temp2 = (((canRx[4] - 40) * 1) + 32); //1 was 1.8
 182              		.loc 1 36 0
 183 001e 0B79     		ldrb	r3, [r1, #4]	@ zero_extendqisi2
 184 0020 083B     		subs	r3, r3, #8
 185 0022 9370     		strb	r3, [r2, #2]
  37:Core/Src/dcdc.c ****         DCDC.current = canRx[5];
 186              		.loc 1 37 0
 187 0024 4B79     		ldrb	r3, [r1, #5]	@ zero_extendqisi2
 188 0026 D370     		strb	r3, [r2, #3]
  38:Core/Src/dcdc.c ****     }
  39:Core/Src/dcdc.c **** }
 189              		.loc 1 39 0
 190 0028 EEE7     		b	.L13
 191              	.L17:
 192 002a 00BF     		.align	2
 193              	.L16:
 194 002c 00000000 		.word	DCDC
 195 0030 ABAAAAAA 		.word	-1431655765
 196              		.cfi_endproc
ARM GAS  /tmp/ccYP3GbG.s 			page 5


 197              	.LFE69:
 199              		.section	.text.dcdcHandler,"ax",%progbits
 200              		.align	1
 201              		.global	dcdcHandler
 202              		.syntax unified
 203              		.thumb
 204              		.thumb_func
 205              		.fpu softvfp
 207              	dcdcHandler:
 208              	.LFB70:
  40:Core/Src/dcdc.c **** 
  41:Core/Src/dcdc.c **** void dcdcHandler(int vehicleState)
  42:Core/Src/dcdc.c **** {
 209              		.loc 1 42 0
 210              		.cfi_startproc
 211              		@ args = 0, pretend = 0, frame = 0
 212              		@ frame_needed = 0, uses_anonymous_args = 0
 213              	.LVL7:
 214 0000 08B5     		push	{r3, lr}
 215              		.cfi_def_cfa_offset 8
 216              		.cfi_offset 3, -8
 217              		.cfi_offset 14, -4
  43:Core/Src/dcdc.c ****     switch (vehicleState)
 218              		.loc 1 43 0
 219 0002 38B1     		cbz	r0, .L20
 220 0004 0028     		cmp	r0, #0
 221 0006 03DB     		blt	.L18
 222 0008 0728     		cmp	r0, #7
 223 000a 02DC     		bgt	.L26
  44:Core/Src/dcdc.c ****     {
  45:Core/Src/dcdc.c ****     case off:
  46:Core/Src/dcdc.c ****         if (ADC_data[lvread] < 3600) //~12.1vdc
  47:Core/Src/dcdc.c ****         {
  48:Core/Src/dcdc.c ****             tenderActive = true;
  49:Core/Src/dcdc.c ****             time_now = HAL_GetTick();
  50:Core/Src/dcdc.c ****         }
  51:Core/Src/dcdc.c ****         if(tenderActive)
  52:Core/Src/dcdc.c ****         {
  53:Core/Src/dcdc.c ****             dcdc_ON();
  54:Core/Src/dcdc.c ****             if ((HAL_GetTick() - time_now) > period)
  55:Core/Src/dcdc.c ****             {
  56:Core/Src/dcdc.c ****                 //time_now = HAL_GetTick();
  57:Core/Src/dcdc.c ****                 tenderActive = false;
  58:Core/Src/dcdc.c ****             }
  59:Core/Src/dcdc.c ****         }
  60:Core/Src/dcdc.c ****         if (!tenderActive)
  61:Core/Src/dcdc.c ****         {
  62:Core/Src/dcdc.c ****             dcdc_OFF();
  63:Core/Src/dcdc.c ****         }
  64:Core/Src/dcdc.c ****         break;
  65:Core/Src/dcdc.c **** 
  66:Core/Src/dcdc.c ****     case on:
  67:Core/Src/dcdc.c ****     case run:
  68:Core/Src/dcdc.c ****     case charge_keyOn:
  69:Core/Src/dcdc.c ****     case charge_keyOff:
  70:Core/Src/dcdc.c ****     case idle:
  71:Core/Src/dcdc.c ****     case launchMode:
ARM GAS  /tmp/ccYP3GbG.s 			page 6


  72:Core/Src/dcdc.c ****     case burnout:
  73:Core/Src/dcdc.c ****         dcdc_ON();
 224              		.loc 1 73 0
 225 000c FFF7FEFF 		bl	dcdc_ON
 226              	.LVL8:
 227              	.L18:
 228 0010 08BD     		pop	{r3, pc}
 229              	.LVL9:
 230              	.L26:
 231 0012 08BD     		pop	{r3, pc}
 232              	.L20:
  46:Core/Src/dcdc.c ****         {
 233              		.loc 1 46 0
 234 0014 124B     		ldr	r3, .L29
 235 0016 1B68     		ldr	r3, [r3]
 236 0018 B3F5616F 		cmp	r3, #3600
 237 001c 09D3     		bcc	.L27
 238              	.LVL10:
 239              	.L22:
  51:Core/Src/dcdc.c ****         {
 240              		.loc 1 51 0
 241 001e 114B     		ldr	r3, .L29+4
 242 0020 1B78     		ldrb	r3, [r3]	@ zero_extendqisi2
 243 0022 73B9     		cbnz	r3, .L28
 244              	.L23:
  60:Core/Src/dcdc.c ****         {
 245              		.loc 1 60 0
 246 0024 0F4B     		ldr	r3, .L29+4
 247 0026 1B78     		ldrb	r3, [r3]	@ zero_extendqisi2
 248 0028 002B     		cmp	r3, #0
 249 002a F1D1     		bne	.L18
  62:Core/Src/dcdc.c ****         }
 250              		.loc 1 62 0
 251 002c FFF7FEFF 		bl	dcdc_OFF
 252              	.LVL11:
 253 0030 08BD     		pop	{r3, pc}
 254              	.LVL12:
 255              	.L27:
  48:Core/Src/dcdc.c ****             time_now = HAL_GetTick();
 256              		.loc 1 48 0
 257 0032 0122     		movs	r2, #1
 258 0034 0B4B     		ldr	r3, .L29+4
 259 0036 1A70     		strb	r2, [r3]
  49:Core/Src/dcdc.c ****         }
 260              		.loc 1 49 0
 261 0038 FFF7FEFF 		bl	HAL_GetTick
 262              	.LVL13:
 263 003c 0A4B     		ldr	r3, .L29+8
 264 003e 1860     		str	r0, [r3]
 265 0040 EDE7     		b	.L22
 266              	.L28:
  53:Core/Src/dcdc.c ****             if ((HAL_GetTick() - time_now) > period)
 267              		.loc 1 53 0
 268 0042 FFF7FEFF 		bl	dcdc_ON
 269              	.LVL14:
  54:Core/Src/dcdc.c ****             {
 270              		.loc 1 54 0
ARM GAS  /tmp/ccYP3GbG.s 			page 7


 271 0046 FFF7FEFF 		bl	HAL_GetTick
 272              	.LVL15:
 273 004a 074B     		ldr	r3, .L29+8
 274 004c 1B68     		ldr	r3, [r3]
 275 004e C01A     		subs	r0, r0, r3
 276 0050 064B     		ldr	r3, .L29+12
 277 0052 1B68     		ldr	r3, [r3]
 278 0054 9842     		cmp	r0, r3
 279 0056 E5D9     		bls	.L23
  57:Core/Src/dcdc.c ****             }
 280              		.loc 1 57 0
 281 0058 0022     		movs	r2, #0
 282 005a 024B     		ldr	r3, .L29+4
 283 005c 1A70     		strb	r2, [r3]
 284 005e E1E7     		b	.L23
 285              	.L30:
 286              		.align	2
 287              	.L29:
 288 0060 00000000 		.word	ADC_data
 289 0064 00000000 		.word	tenderActive
 290 0068 00000000 		.word	time_now
 291 006c 00000000 		.word	period
 292              		.cfi_endproc
 293              	.LFE70:
 295              		.comm	tenderActive,1,1
 296              		.comm	time_now,4,4
 297              		.comm	period,4,4
 298              		.comm	DCDC,4,4
 299              		.comm	canDebug,4,4
 300              		.comm	txCycle2,4,4
 301              		.comm	txCycle,4,4
 302              		.comm	canTx2,8,4
 303              		.comm	canTx,8,4
 304              		.comm	canMailbox2,4,4
 305              		.comm	canMailbox,4,4
 306              		.comm	canRx2,8,4
 307              		.comm	canRx,8,4
 308              		.comm	txMsgExt2,24,4
 309              		.comm	txMsg2,24,4
 310              		.comm	rxMsg2,28,4
 311              		.comm	txMsgExt,24,4
 312              		.comm	txMsg,24,4
 313              		.comm	rxMsg,28,4
 314              		.comm	sf5,40,4
 315              		.comm	sf4,40,4
 316              		.comm	sf3,40,4
 317              		.comm	sf2,40,4
 318              		.comm	sf,40,4
 319              		.comm	hcan2,40,4
 320              		.comm	hcan1,40,4
 321              		.comm	LIDAR,8,4
 322              		.comm	te,12,4
 323              		.comm	BMS,20,4
 324              		.comm	charger,3,4
 325              		.comm	vcu,7,4
 326              		.comm	iboost,2,4
 327              		.comm	ldu,18,4
ARM GAS  /tmp/ccYP3GbG.s 			page 8


 328              		.comm	tempdata,4,4
 329              		.comm	ADC_data,12,4
 330              		.text
 331              	.Letext0:
 332              		.file 2 "/usr/include/newlib/machine/_default_types.h"
 333              		.file 3 "/usr/include/newlib/sys/_stdint.h"
 334              		.file 4 "Drivers/CMSIS/Include/core_cm3.h"
 335              		.file 5 "Drivers/CMSIS/Device/ST/STM32F1xx/Include/system_stm32f1xx.h"
 336              		.file 6 "Drivers/CMSIS/Device/ST/STM32F1xx/Include/stm32f105xc.h"
 337              		.file 7 "Drivers/CMSIS/Device/ST/STM32F1xx/Include/stm32f1xx.h"
 338              		.file 8 "Drivers/STM32F1xx_HAL_Driver/Inc/stm32f1xx_hal_can.h"
 339              		.file 9 "Drivers/STM32F1xx_HAL_Driver/Inc/stm32f1xx_hal.h"
 340              		.file 10 "/usr/include/newlib/sys/lock.h"
 341              		.file 11 "/usr/include/newlib/sys/_types.h"
 342              		.file 12 "/usr/lib/gcc/arm-none-eabi/6.3.1/include/stddef.h"
 343              		.file 13 "/usr/include/newlib/sys/reent.h"
 344              		.file 14 "Core/Inc/vcu.h"
 345              		.file 15 "Core/Inc/encoder.h"
 346              		.file 16 "Core/Inc/lidar.h"
 347              		.file 17 "Core/Inc/can_setup.h"
 348              		.file 18 "Core/Inc/dcdc.h"
ARM GAS  /tmp/ccYP3GbG.s 			page 9

