ARM GAS  /tmp/ccM2egNd.s 			page 1


   1              		.cpu cortex-m3
   2              		.eabi_attribute 20, 1
   3              		.eabi_attribute 21, 1
   4              		.eabi_attribute 23, 3
   5              		.eabi_attribute 24, 1
   6              		.eabi_attribute 25, 1
   7              		.eabi_attribute 26, 1
   8              		.eabi_attribute 30, 1
   9              		.eabi_attribute 34, 1
  10              		.eabi_attribute 18, 4
  11              		.file	"dynamics.c"
  12              		.text
  13              	.Ltext0:
  14              		.cfi_sections	.debug_frame
  15              		.global	__aeabi_dmul
  16              		.global	__aeabi_ddiv
  17              		.section	.text.deg2rad,"ax",%progbits
  18              		.align	1
  19              		.global	deg2rad
  20              		.arch armv7-m
  21              		.syntax unified
  22              		.thumb
  23              		.thumb_func
  24              		.fpu softvfp
  26              	deg2rad:
  27              	.LVL0:
  28              	.LFB69:
  29              		.file 1 "Core/Inc/distance.h"
   1:Core/Inc/distance.h **** #if !defined(__DISTANCE_H__)
   2:Core/Inc/distance.h **** #define __DISTANCE_H__
   3:Core/Inc/distance.h **** 
   4:Core/Inc/distance.h **** /*::::::::::::::::::::::::::::::::::::::::::::::::::::::::::::::::::::::::::::*/
   5:Core/Inc/distance.h **** /*::                                                                         :*/
   6:Core/Inc/distance.h **** /*::  This routine calculates the distance between two points (given the     :*/
   7:Core/Inc/distance.h **** /*::  latitude/longitude of those points). It is being used to calculate     :*/
   8:Core/Inc/distance.h **** /*::  the distance between two locations using GeoDataSource(TM) products.   :*/
   9:Core/Inc/distance.h **** /*::                                                                         :*/
  10:Core/Inc/distance.h **** /*::  Definitions:                                                           :*/
  11:Core/Inc/distance.h **** /*::    South latitudes are negative, east longitudes are positive           :*/
  12:Core/Inc/distance.h **** /*::                                                                         :*/
  13:Core/Inc/distance.h **** /*::  Passed to function:                                                    :*/
  14:Core/Inc/distance.h **** /*::    lat1, lon1 = Latitude and Longitude of point 1 (in decimal degrees)  :*/
  15:Core/Inc/distance.h **** /*::    lat2, lon2 = Latitude and Longitude of point 2 (in decimal degrees)  :*/
  16:Core/Inc/distance.h **** /*::    unit = the unit you desire for results                               :*/
  17:Core/Inc/distance.h **** /*::           where: 'M' is statute miles (default)                         :*/
  18:Core/Inc/distance.h **** /*::                  'K' is kilometers                                      :*/
  19:Core/Inc/distance.h **** /*::                  'N' is nautical miles                                  :*/
  20:Core/Inc/distance.h **** /*::  Worldwide cities and other features databases with latitude longitude  :*/
  21:Core/Inc/distance.h **** /*::  are available at https://www.geodatasource.com                         :*/
  22:Core/Inc/distance.h **** /*::                                                                         :*/
  23:Core/Inc/distance.h **** /*::  For enquiries, please contact sales@geodatasource.com                  :*/
  24:Core/Inc/distance.h **** /*::                                                                         :*/
  25:Core/Inc/distance.h **** /*::  Official Web site: https://www.geodatasource.com                       :*/
  26:Core/Inc/distance.h **** /*::                                                                         :*/
  27:Core/Inc/distance.h **** /*::           GeoDataSource.com (C) All Rights Reserved 2018                :*/
  28:Core/Inc/distance.h **** /*::                                                                         :*/
  29:Core/Inc/distance.h **** /*::::::::::::::::::::::::::::::::::::::::::::::::::::::::::::::::::::::::::::*/
ARM GAS  /tmp/ccM2egNd.s 			page 2


  30:Core/Inc/distance.h **** 
  31:Core/Inc/distance.h **** #include <math.h>
  32:Core/Inc/distance.h **** #include "my_math.h"
  33:Core/Inc/distance.h **** 
  34:Core/Inc/distance.h **** #define pi 3.14159265358979323846
  35:Core/Inc/distance.h **** 
  36:Core/Inc/distance.h **** /*:::::::::::::::::::::::::::::::::::::::::::::::::::::::::::::::::::*/
  37:Core/Inc/distance.h **** /*::  Function prototypes                                           :*/
  38:Core/Inc/distance.h **** /*:::::::::::::::::::::::::::::::::::::::::::::::::::::::::::::::::::*/
  39:Core/Inc/distance.h **** double deg2rad(double);
  40:Core/Inc/distance.h **** double rad2deg(double);
  41:Core/Inc/distance.h **** 
  42:Core/Inc/distance.h **** double distance(double lat1, double lon1, double lat2, double lon2, char unit)
  43:Core/Inc/distance.h **** {
  44:Core/Inc/distance.h ****     double theta, dist;
  45:Core/Inc/distance.h ****     if ((lat1 == lat2) && (lon1 == lon2))
  46:Core/Inc/distance.h ****     {
  47:Core/Inc/distance.h ****         return 0;
  48:Core/Inc/distance.h ****     }
  49:Core/Inc/distance.h ****     else
  50:Core/Inc/distance.h ****     {
  51:Core/Inc/distance.h ****         theta = lon1 - lon2;
  52:Core/Inc/distance.h ****         dist = sin(deg2rad(lat1)) * sin(deg2rad(lat2)) + cos(deg2rad(lat1)) * cos(deg2rad(lat2)) * 
  53:Core/Inc/distance.h ****         dist = acos(dist);
  54:Core/Inc/distance.h ****         dist = rad2deg(dist);
  55:Core/Inc/distance.h ****         dist = dist * 60 * 1.1515;
  56:Core/Inc/distance.h ****         switch (unit)
  57:Core/Inc/distance.h ****         {
  58:Core/Inc/distance.h ****         case 'M':
  59:Core/Inc/distance.h ****             break;
  60:Core/Inc/distance.h ****         case 'K':
  61:Core/Inc/distance.h ****             dist = dist * 1.609344;
  62:Core/Inc/distance.h ****             break;
  63:Core/Inc/distance.h ****         case 'N':
  64:Core/Inc/distance.h ****             dist = dist * 0.8684;
  65:Core/Inc/distance.h ****             break;
  66:Core/Inc/distance.h ****         }
  67:Core/Inc/distance.h ****         return (dist);
  68:Core/Inc/distance.h ****     }
  69:Core/Inc/distance.h **** }
  70:Core/Inc/distance.h **** 
  71:Core/Inc/distance.h **** /*:::::::::::::::::::::::::::::::::::::::::::::::::::::::::::::::::::*/
  72:Core/Inc/distance.h **** /*::  This function converts decimal degrees to radians             :*/
  73:Core/Inc/distance.h **** /*:::::::::::::::::::::::::::::::::::::::::::::::::::::::::::::::::::*/
  74:Core/Inc/distance.h **** double deg2rad(double deg)
  75:Core/Inc/distance.h **** {
  30              		.loc 1 75 1 view -0
  31              		.cfi_startproc
  32              		@ args = 0, pretend = 0, frame = 0
  33              		@ frame_needed = 0, uses_anonymous_args = 0
  34              		.loc 1 75 1 is_stmt 0 view .LVU1
  35 0000 08B5     		push	{r3, lr}
  36              		.cfi_def_cfa_offset 8
  37              		.cfi_offset 3, -8
  38              		.cfi_offset 14, -4
  76:Core/Inc/distance.h ****     return (deg * pi / 180);
  39              		.loc 1 76 5 is_stmt 1 view .LVU2
ARM GAS  /tmp/ccM2egNd.s 			page 3


  40              		.loc 1 76 17 is_stmt 0 view .LVU3
  41 0002 05A3     		adr	r3, .L3
  42 0004 D3E90023 		ldrd	r2, [r3]
  43 0008 FFF7FEFF 		bl	__aeabi_dmul
  44              	.LVL1:
  45              		.loc 1 76 22 view .LVU4
  46 000c 0022     		movs	r2, #0
  47 000e 044B     		ldr	r3, .L3+8
  48 0010 FFF7FEFF 		bl	__aeabi_ddiv
  49              	.LVL2:
  77:Core/Inc/distance.h **** }
  50              		.loc 1 77 1 view .LVU5
  51 0014 08BD     		pop	{r3, pc}
  52              	.L4:
  53 0016 00BF     		.align	3
  54              	.L3:
  55 0018 182D4454 		.word	1413754136
  56 001c FB210940 		.word	1074340347
  57 0020 00806640 		.word	1080459264
  58              		.cfi_endproc
  59              	.LFE69:
  61              		.section	.text.rad2deg,"ax",%progbits
  62              		.align	1
  63              		.global	rad2deg
  64              		.syntax unified
  65              		.thumb
  66              		.thumb_func
  67              		.fpu softvfp
  69              	rad2deg:
  70              	.LVL3:
  71              	.LFB70:
  78:Core/Inc/distance.h **** 
  79:Core/Inc/distance.h **** /*:::::::::::::::::::::::::::::::::::::::::::::::::::::::::::::::::::*/
  80:Core/Inc/distance.h **** /*::  This function converts radians to decimal degrees             :*/
  81:Core/Inc/distance.h **** /*:::::::::::::::::::::::::::::::::::::::::::::::::::::::::::::::::::*/
  82:Core/Inc/distance.h **** double rad2deg(double rad)
  83:Core/Inc/distance.h **** {
  72              		.loc 1 83 1 is_stmt 1 view -0
  73              		.cfi_startproc
  74              		@ args = 0, pretend = 0, frame = 0
  75              		@ frame_needed = 0, uses_anonymous_args = 0
  76              		.loc 1 83 1 is_stmt 0 view .LVU7
  77 0000 08B5     		push	{r3, lr}
  78              		.cfi_def_cfa_offset 8
  79              		.cfi_offset 3, -8
  80              		.cfi_offset 14, -4
  84:Core/Inc/distance.h ****     return (rad * 180 / pi);
  81              		.loc 1 84 5 is_stmt 1 view .LVU8
  82              		.loc 1 84 17 is_stmt 0 view .LVU9
  83 0002 0022     		movs	r2, #0
  84 0004 064B     		ldr	r3, .L7+8
  85 0006 FFF7FEFF 		bl	__aeabi_dmul
  86              	.LVL4:
  87              		.loc 1 84 23 view .LVU10
  88 000a 03A3     		adr	r3, .L7
  89 000c D3E90023 		ldrd	r2, [r3]
  90 0010 FFF7FEFF 		bl	__aeabi_ddiv
ARM GAS  /tmp/ccM2egNd.s 			page 4


  91              	.LVL5:
  85:Core/Inc/distance.h **** }
  92              		.loc 1 85 1 view .LVU11
  93 0014 08BD     		pop	{r3, pc}
  94              	.L8:
  95 0016 00BF     		.align	3
  96              	.L7:
  97 0018 182D4454 		.word	1413754136
  98 001c FB210940 		.word	1074340347
  99 0020 00806640 		.word	1080459264
 100              		.cfi_endproc
 101              	.LFE70:
 103              		.global	__aeabi_dcmpeq
 104              		.global	__aeabi_dsub
 105              		.global	__aeabi_dadd
 106              		.section	.text.distance,"ax",%progbits
 107              		.align	1
 108              		.global	distance
 109              		.syntax unified
 110              		.thumb
 111              		.thumb_func
 112              		.fpu softvfp
 114              	distance:
 115              	.LVL6:
 116              	.LFB68:
  43:Core/Inc/distance.h ****     double theta, dist;
 117              		.loc 1 43 1 is_stmt 1 view -0
 118              		.cfi_startproc
 119              		@ args = 20, pretend = 0, frame = 8
 120              		@ frame_needed = 0, uses_anonymous_args = 0
  43:Core/Inc/distance.h ****     double theta, dist;
 121              		.loc 1 43 1 is_stmt 0 view .LVU13
 122 0000 2DE9F047 		push	{r4, r5, r6, r7, r8, r9, r10, lr}
 123              		.cfi_def_cfa_offset 32
 124              		.cfi_offset 4, -32
 125              		.cfi_offset 5, -28
 126              		.cfi_offset 6, -24
 127              		.cfi_offset 7, -20
 128              		.cfi_offset 8, -16
 129              		.cfi_offset 9, -12
 130              		.cfi_offset 10, -8
 131              		.cfi_offset 14, -4
 132 0004 82B0     		sub	sp, sp, #8
 133              		.cfi_def_cfa_offset 40
 134 0006 0446     		mov	r4, r0
 135 0008 0D46     		mov	r5, r1
 136 000a 1646     		mov	r6, r2
 137 000c 1F46     		mov	r7, r3
 138 000e DDE90C89 		ldrd	r8, [sp, #48]
 139 0012 9DF838A0 		ldrb	r10, [sp, #56]	@ zero_extendqisi2
  44:Core/Inc/distance.h ****     if ((lat1 == lat2) && (lon1 == lon2))
 140              		.loc 1 44 5 is_stmt 1 view .LVU14
  45:Core/Inc/distance.h ****     {
 141              		.loc 1 45 5 view .LVU15
  45:Core/Inc/distance.h ****     {
 142              		.loc 1 45 8 is_stmt 0 view .LVU16
 143 0016 DDE90A23 		ldrd	r2, [sp, #40]
ARM GAS  /tmp/ccM2egNd.s 			page 5


 144              	.LVL7:
  45:Core/Inc/distance.h ****     {
 145              		.loc 1 45 8 view .LVU17
 146 001a FFF7FEFF 		bl	__aeabi_dcmpeq
 147              	.LVL8:
  45:Core/Inc/distance.h ****     {
 148              		.loc 1 45 8 view .LVU18
 149 001e 38B1     		cbz	r0, .L10
  45:Core/Inc/distance.h ****     {
 150              		.loc 1 45 24 discriminator 1 view .LVU19
 151 0020 4246     		mov	r2, r8
 152 0022 4B46     		mov	r3, r9
 153 0024 3046     		mov	r0, r6
 154 0026 3946     		mov	r1, r7
 155 0028 FFF7FEFF 		bl	__aeabi_dcmpeq
 156              	.LVL9:
 157 002c 0028     		cmp	r0, #0
 158 002e 64D1     		bne	.L16
 159              	.L10:
  51:Core/Inc/distance.h ****         dist = sin(deg2rad(lat1)) * sin(deg2rad(lat2)) + cos(deg2rad(lat1)) * cos(deg2rad(lat2)) * 
 160              		.loc 1 51 9 is_stmt 1 view .LVU20
  51:Core/Inc/distance.h ****         dist = sin(deg2rad(lat1)) * sin(deg2rad(lat2)) + cos(deg2rad(lat1)) * cos(deg2rad(lat2)) * 
 161              		.loc 1 51 15 is_stmt 0 view .LVU21
 162 0030 4246     		mov	r2, r8
 163 0032 4B46     		mov	r3, r9
 164 0034 3046     		mov	r0, r6
 165 0036 3946     		mov	r1, r7
 166 0038 FFF7FEFF 		bl	__aeabi_dsub
 167              	.LVL10:
 168 003c CDE90001 		strd	r0, [sp]
 169              	.LVL11:
  52:Core/Inc/distance.h ****         dist = acos(dist);
 170              		.loc 1 52 9 is_stmt 1 view .LVU22
  52:Core/Inc/distance.h ****         dist = acos(dist);
 171              		.loc 1 52 16 is_stmt 0 view .LVU23
 172 0040 2046     		mov	r0, r4
 173              	.LVL12:
  52:Core/Inc/distance.h ****         dist = acos(dist);
 174              		.loc 1 52 16 view .LVU24
 175 0042 2946     		mov	r1, r5
 176 0044 FFF7FEFF 		bl	deg2rad
 177              	.LVL13:
 178 0048 0646     		mov	r6, r0
 179 004a 0F46     		mov	r7, r1
 180 004c FFF7FEFF 		bl	sin
 181              	.LVL14:
 182 0050 8046     		mov	r8, r0
 183 0052 8946     		mov	r9, r1
  52:Core/Inc/distance.h ****         dist = acos(dist);
 184              		.loc 1 52 37 view .LVU25
 185 0054 DDE90A01 		ldrd	r0, [sp, #40]
 186 0058 FFF7FEFF 		bl	deg2rad
 187              	.LVL15:
 188 005c 0446     		mov	r4, r0
 189 005e 0D46     		mov	r5, r1
 190 0060 FFF7FEFF 		bl	sin
 191              	.LVL16:
ARM GAS  /tmp/ccM2egNd.s 			page 6


 192 0064 0246     		mov	r2, r0
 193 0066 0B46     		mov	r3, r1
  52:Core/Inc/distance.h ****         dist = acos(dist);
 194              		.loc 1 52 35 view .LVU26
 195 0068 4046     		mov	r0, r8
 196 006a 4946     		mov	r1, r9
 197 006c FFF7FEFF 		bl	__aeabi_dmul
 198              	.LVL17:
 199 0070 8046     		mov	r8, r0
 200 0072 8946     		mov	r9, r1
  52:Core/Inc/distance.h ****         dist = acos(dist);
 201              		.loc 1 52 58 view .LVU27
 202 0074 3046     		mov	r0, r6
 203 0076 3946     		mov	r1, r7
 204 0078 FFF7FEFF 		bl	cos
 205              	.LVL18:
 206 007c 0646     		mov	r6, r0
 207 007e 0F46     		mov	r7, r1
  52:Core/Inc/distance.h ****         dist = acos(dist);
 208              		.loc 1 52 79 view .LVU28
 209 0080 2046     		mov	r0, r4
 210 0082 2946     		mov	r1, r5
 211 0084 FFF7FEFF 		bl	cos
 212              	.LVL19:
 213 0088 0246     		mov	r2, r0
 214 008a 0B46     		mov	r3, r1
  52:Core/Inc/distance.h ****         dist = acos(dist);
 215              		.loc 1 52 77 view .LVU29
 216 008c 3046     		mov	r0, r6
 217 008e 3946     		mov	r1, r7
 218 0090 FFF7FEFF 		bl	__aeabi_dmul
 219              	.LVL20:
 220 0094 0446     		mov	r4, r0
 221 0096 0D46     		mov	r5, r1
  52:Core/Inc/distance.h ****         dist = acos(dist);
 222              		.loc 1 52 100 view .LVU30
 223 0098 DDE90001 		ldrd	r0, [sp]
 224 009c FFF7FEFF 		bl	deg2rad
 225              	.LVL21:
 226 00a0 FFF7FEFF 		bl	cos
 227              	.LVL22:
 228 00a4 0246     		mov	r2, r0
 229 00a6 0B46     		mov	r3, r1
  52:Core/Inc/distance.h ****         dist = acos(dist);
 230              		.loc 1 52 98 view .LVU31
 231 00a8 2046     		mov	r0, r4
 232 00aa 2946     		mov	r1, r5
 233 00ac FFF7FEFF 		bl	__aeabi_dmul
 234              	.LVL23:
 235 00b0 0246     		mov	r2, r0
 236 00b2 0B46     		mov	r3, r1
  52:Core/Inc/distance.h ****         dist = acos(dist);
 237              		.loc 1 52 14 view .LVU32
 238 00b4 4046     		mov	r0, r8
 239 00b6 4946     		mov	r1, r9
 240 00b8 FFF7FEFF 		bl	__aeabi_dadd
 241              	.LVL24:
ARM GAS  /tmp/ccM2egNd.s 			page 7


  53:Core/Inc/distance.h ****         dist = rad2deg(dist);
 242              		.loc 1 53 9 is_stmt 1 view .LVU33
  53:Core/Inc/distance.h ****         dist = rad2deg(dist);
 243              		.loc 1 53 16 is_stmt 0 view .LVU34
 244 00bc FFF7FEFF 		bl	acos
 245              	.LVL25:
  54:Core/Inc/distance.h ****         dist = dist * 60 * 1.1515;
 246              		.loc 1 54 9 is_stmt 1 view .LVU35
  54:Core/Inc/distance.h ****         dist = dist * 60 * 1.1515;
 247              		.loc 1 54 16 is_stmt 0 view .LVU36
 248 00c0 FFF7FEFF 		bl	rad2deg
 249              	.LVL26:
  55:Core/Inc/distance.h ****         switch (unit)
 250              		.loc 1 55 9 is_stmt 1 view .LVU37
  55:Core/Inc/distance.h ****         switch (unit)
 251              		.loc 1 55 21 is_stmt 0 view .LVU38
 252 00c4 0022     		movs	r2, #0
 253 00c6 164B     		ldr	r3, .L19+24
 254 00c8 FFF7FEFF 		bl	__aeabi_dmul
 255              	.LVL27:
  55:Core/Inc/distance.h ****         switch (unit)
 256              		.loc 1 55 14 view .LVU39
 257 00cc 0EA3     		adr	r3, .L19
 258 00ce D3E90023 		ldrd	r2, [r3]
 259 00d2 FFF7FEFF 		bl	__aeabi_dmul
 260              	.LVL28:
  56:Core/Inc/distance.h ****         {
 261              		.loc 1 56 9 is_stmt 1 view .LVU40
 262 00d6 BAF14B0F 		cmp	r10, #75
 263 00da 08D0     		beq	.L13
 264 00dc BAF14E0F 		cmp	r10, #78
 265 00e0 0DD1     		bne	.L9
  64:Core/Inc/distance.h ****             break;
 266              		.loc 1 64 13 view .LVU41
  64:Core/Inc/distance.h ****             break;
 267              		.loc 1 64 18 is_stmt 0 view .LVU42
 268 00e2 0BA3     		adr	r3, .L19+8
 269 00e4 D3E90023 		ldrd	r2, [r3]
 270 00e8 FFF7FEFF 		bl	__aeabi_dmul
 271              	.LVL29:
  65:Core/Inc/distance.h ****         }
 272              		.loc 1 65 13 is_stmt 1 view .LVU43
  67:Core/Inc/distance.h ****     }
 273              		.loc 1 67 9 view .LVU44
  67:Core/Inc/distance.h ****     }
 274              		.loc 1 67 16 is_stmt 0 view .LVU45
 275 00ec 07E0     		b	.L9
 276              	.L13:
  61:Core/Inc/distance.h ****             break;
 277              		.loc 1 61 13 is_stmt 1 view .LVU46
  61:Core/Inc/distance.h ****             break;
 278              		.loc 1 61 18 is_stmt 0 view .LVU47
 279 00ee 0AA3     		adr	r3, .L19+16
 280 00f0 D3E90023 		ldrd	r2, [r3]
 281 00f4 FFF7FEFF 		bl	__aeabi_dmul
 282              	.LVL30:
  62:Core/Inc/distance.h ****         case 'N':
ARM GAS  /tmp/ccM2egNd.s 			page 8


 283              		.loc 1 62 13 is_stmt 1 view .LVU48
 284 00f8 01E0     		b	.L9
 285              	.LVL31:
 286              	.L16:
  47:Core/Inc/distance.h ****     }
 287              		.loc 1 47 16 is_stmt 0 view .LVU49
 288 00fa 0020     		movs	r0, #0
 289 00fc 0021     		movs	r1, #0
 290              	.L9:
  69:Core/Inc/distance.h **** 
 291              		.loc 1 69 1 view .LVU50
 292 00fe 02B0     		add	sp, sp, #8
 293              		.cfi_def_cfa_offset 32
 294              		@ sp needed
 295 0100 BDE8F087 		pop	{r4, r5, r6, r7, r8, r9, r10, pc}
 296              	.LVL32:
 297              	.L20:
  69:Core/Inc/distance.h **** 
 298              		.loc 1 69 1 view .LVU51
 299 0104 AFF30080 		.align	3
 300              	.L19:
 301 0108 06819543 		.word	1133871366
 302 010c 8B6CF23F 		.word	1072852107
 303 0110 B515FBCB 		.word	3422229941
 304 0114 EEC9EB3F 		.word	1072417262
 305 0118 A038807E 		.word	2122332320
 306 011c DFBFF93F 		.word	1073332191
 307 0120 00004E40 		.word	1078853632
 308              		.cfi_endproc
 309              	.LFE68:
 311              		.global	__aeabi_f2iz
 312              		.section	.text.zero2sixty,"ax",%progbits
 313              		.align	1
 314              		.global	zero2sixty
 315              		.syntax unified
 316              		.thumb
 317              		.thumb_func
 318              		.fpu softvfp
 320              	zero2sixty:
 321              	.LFB71:
 322              		.file 2 "Core/Src/dynamics.c"
   1:Core/Src/dynamics.c **** #include "dynamics.h"
   2:Core/Src/dynamics.c **** 
   3:Core/Src/dynamics.c **** int zero2sixty(void)
   4:Core/Src/dynamics.c **** {
 323              		.loc 2 4 1 is_stmt 1 view -0
 324              		.cfi_startproc
 325              		@ args = 0, pretend = 0, frame = 0
 326              		@ frame_needed = 0, uses_anonymous_args = 0
 327 0000 08B5     		push	{r3, lr}
 328              		.cfi_def_cfa_offset 8
 329              		.cfi_offset 3, -8
 330              		.cfi_offset 14, -4
   5:Core/Src/dynamics.c ****     return GPS.lon;
 331              		.loc 2 5 5 view .LVU53
 332              		.loc 2 5 15 is_stmt 0 view .LVU54
 333 0002 024B     		ldr	r3, .L23
ARM GAS  /tmp/ccM2egNd.s 			page 9


 334 0004 5868     		ldr	r0, [r3, #4]	@ float
 335 0006 FFF7FEFF 		bl	__aeabi_f2iz
 336              	.LVL33:
   6:Core/Src/dynamics.c **** }
 337              		.loc 2 6 1 view .LVU55
 338 000a 08BD     		pop	{r3, pc}
 339              	.L24:
 340              		.align	2
 341              	.L23:
 342 000c 00000000 		.word	GPS
 343              		.cfi_endproc
 344              	.LFE71:
 346              		.section	.text.getPitch,"ax",%progbits
 347              		.align	1
 348              		.global	getPitch
 349              		.syntax unified
 350              		.thumb
 351              		.thumb_func
 352              		.fpu softvfp
 354              	getPitch:
 355              	.LFB72:
   7:Core/Src/dynamics.c **** 
   8:Core/Src/dynamics.c **** int getPitch(void)
   9:Core/Src/dynamics.c **** {
 356              		.loc 2 9 1 is_stmt 1 view -0
 357              		.cfi_startproc
 358              		@ args = 0, pretend = 0, frame = 0
 359              		@ frame_needed = 0, uses_anonymous_args = 0
 360 0000 08B5     		push	{r3, lr}
 361              		.cfi_def_cfa_offset 8
 362              		.cfi_offset 3, -8
 363              		.cfi_offset 14, -4
  10:Core/Src/dynamics.c ****     return GPS.lat;
 364              		.loc 2 10 5 view .LVU57
 365              		.loc 2 10 15 is_stmt 0 view .LVU58
 366 0002 024B     		ldr	r3, .L27
 367 0004 1868     		ldr	r0, [r3]	@ float
 368 0006 FFF7FEFF 		bl	__aeabi_f2iz
 369              	.LVL34:
  11:Core/Src/dynamics.c **** }
 370              		.loc 2 11 1 view .LVU59
 371 000a 08BD     		pop	{r3, pc}
 372              	.L28:
 373              		.align	2
 374              	.L27:
 375 000c 00000000 		.word	GPS
 376              		.cfi_endproc
 377              	.LFE72:
 379              		.global	__aeabi_i2f
 380              		.section	.text.getDynamics,"ax",%progbits
 381              		.align	1
 382              		.global	getDynamics
 383              		.syntax unified
 384              		.thumb
 385              		.thumb_func
 386              		.fpu softvfp
 388              	getDynamics:
ARM GAS  /tmp/ccM2egNd.s 			page 10


 389              	.LVL35:
 390              	.LFB73:
  12:Core/Src/dynamics.c **** 
  13:Core/Src/dynamics.c **** void getDynamics(CAN_RxHeaderTypeDef *rxMsg, uint8_t *canRx)
  14:Core/Src/dynamics.c **** {
 391              		.loc 2 14 1 is_stmt 1 view -0
 392              		.cfi_startproc
 393              		@ args = 0, pretend = 0, frame = 0
 394              		@ frame_needed = 0, uses_anonymous_args = 0
 395              		.loc 2 14 1 is_stmt 0 view .LVU61
 396 0000 38B5     		push	{r3, r4, r5, lr}
 397              		.cfi_def_cfa_offset 16
 398              		.cfi_offset 3, -16
 399              		.cfi_offset 4, -12
 400              		.cfi_offset 5, -8
 401              		.cfi_offset 14, -4
 402 0002 0C46     		mov	r4, r1
  15:Core/Src/dynamics.c ****     switch (rxMsg->ExtId)
 403              		.loc 2 15 5 is_stmt 1 view .LVU62
 404              		.loc 2 15 18 is_stmt 0 view .LVU63
 405 0004 4368     		ldr	r3, [r0, #4]
 406 0006 A3F52023 		sub	r3, r3, #655360
 407 000a 042B     		cmp	r3, #4
 408 000c 1FD8     		bhi	.L29
 409 000e DFE803F0 		tbb	[pc, r3]
 410              	.L32:
 411 0012 03       		.byte	(.L36-.L32)/2
 412 0013 1F       		.byte	(.L35-.L32)/2
 413 0014 34       		.byte	(.L34-.L32)/2
 414 0015 44       		.byte	(.L33-.L32)/2
 415 0016 55       		.byte	(.L31-.L32)/2
 416 0017 00       		.p2align 1
 417              	.L36:
  16:Core/Src/dynamics.c ****     {
  17:Core/Src/dynamics.c ****     case 0x0000A0000:
  18:Core/Src/dynamics.c ****         GPS.lat = (canRx[0] << 24) + (canRx[1] << 16) + (canRx[2] << 8) + canRx[3];
 418              		.loc 2 18 9 is_stmt 1 view .LVU64
 419              		.loc 2 18 25 is_stmt 0 view .LVU65
 420 0018 0878     		ldrb	r0, [r1]	@ zero_extendqisi2
 421              	.LVL36:
 422              		.loc 2 18 44 view .LVU66
 423 001a 4B78     		ldrb	r3, [r1, #1]	@ zero_extendqisi2
 424              		.loc 2 18 48 view .LVU67
 425 001c 1B04     		lsls	r3, r3, #16
 426              		.loc 2 18 36 view .LVU68
 427 001e 03EB0063 		add	r3, r3, r0, lsl #24
 428              		.loc 2 18 63 view .LVU69
 429 0022 8878     		ldrb	r0, [r1, #2]	@ zero_extendqisi2
 430              		.loc 2 18 55 view .LVU70
 431 0024 03EB0023 		add	r3, r3, r0, lsl #8
 432              		.loc 2 18 80 view .LVU71
 433 0028 C878     		ldrb	r0, [r1, #3]	@ zero_extendqisi2
 434              		.loc 2 18 17 view .LVU72
 435 002a 2D4D     		ldr	r5, .L38
 436 002c 1844     		add	r0, r0, r3
 437 002e FFF7FEFF 		bl	__aeabi_i2f
 438              	.LVL37:
ARM GAS  /tmp/ccM2egNd.s 			page 11


 439              		.loc 2 18 17 view .LVU73
 440 0032 2860     		str	r0, [r5]	@ float
  19:Core/Src/dynamics.c ****         GPS.lon = (canRx[4] << 24) + (canRx[5] << 16) + (canRx[6] << 8) + canRx[7];
 441              		.loc 2 19 9 is_stmt 1 view .LVU74
 442              		.loc 2 19 25 is_stmt 0 view .LVU75
 443 0034 2079     		ldrb	r0, [r4, #4]	@ zero_extendqisi2
 444              		.loc 2 19 44 view .LVU76
 445 0036 6379     		ldrb	r3, [r4, #5]	@ zero_extendqisi2
 446              		.loc 2 19 48 view .LVU77
 447 0038 1B04     		lsls	r3, r3, #16
 448              		.loc 2 19 36 view .LVU78
 449 003a 03EB0063 		add	r3, r3, r0, lsl #24
 450              		.loc 2 19 63 view .LVU79
 451 003e A079     		ldrb	r0, [r4, #6]	@ zero_extendqisi2
 452              		.loc 2 19 55 view .LVU80
 453 0040 03EB0023 		add	r3, r3, r0, lsl #8
 454              		.loc 2 19 80 view .LVU81
 455 0044 E079     		ldrb	r0, [r4, #7]	@ zero_extendqisi2
 456              		.loc 2 19 17 view .LVU82
 457 0046 1844     		add	r0, r0, r3
 458 0048 FFF7FEFF 		bl	__aeabi_i2f
 459              	.LVL38:
 460 004c 6860     		str	r0, [r5, #4]	@ float
  20:Core/Src/dynamics.c ****         break;
 461              		.loc 2 20 9 is_stmt 1 view .LVU83
 462              	.L29:
  21:Core/Src/dynamics.c **** 
  22:Core/Src/dynamics.c ****     case 0x0000A0001:
  23:Core/Src/dynamics.c ****         GPS.speed = (canRx[0] << 8) + canRx[1];
  24:Core/Src/dynamics.c ****         GPS.alt = (canRx[2] << 8) + canRx[3];
  25:Core/Src/dynamics.c ****         GPS.course = (canRx[4] << 8) + canRx[5];
  26:Core/Src/dynamics.c ****         GPS.speed = canRx[6];
  27:Core/Src/dynamics.c ****         GPS.valid_10hz = canRx[7];
  28:Core/Src/dynamics.c ****         break;
  29:Core/Src/dynamics.c **** 
  30:Core/Src/dynamics.c ****     case 0x0000A0002:
  31:Core/Src/dynamics.c ****         UTC.valid_5hz = canRx[0];
  32:Core/Src/dynamics.c ****         UTC.year = canRx[1];
  33:Core/Src/dynamics.c ****         UTC.month = canRx[2];
  34:Core/Src/dynamics.c ****         UTC.day = canRx[3];
  35:Core/Src/dynamics.c ****         UTC.hours = canRx[5];
  36:Core/Src/dynamics.c ****         UTC.minutes = canRx[6];
  37:Core/Src/dynamics.c ****         UTC.seconds = canRx[7];
  38:Core/Src/dynamics.c ****         break;
  39:Core/Src/dynamics.c **** 
  40:Core/Src/dynamics.c ****     case 0x0000A0003: // val*0x000244141 +8g to -8g
  41:Core/Src/dynamics.c ****         ACCEL.x = (canRx[0] << 8) + canRx[1];
  42:Core/Src/dynamics.c ****         ACCEL.y = (canRx[2] << 8) + canRx[3];
  43:Core/Src/dynamics.c ****         ACCEL.z = (canRx[4] << 8) + canRx[5];
  44:Core/Src/dynamics.c ****         break;
  45:Core/Src/dynamics.c **** 
  46:Core/Src/dynamics.c ****     case 0x0000A0004: // val*0x015258789 +500deg/s to -500deg/s
  47:Core/Src/dynamics.c ****         YAW.x = (canRx[0] << 8) + canRx[1];
  48:Core/Src/dynamics.c ****         YAW.y = (canRx[2] << 8) + canRx[3];
  49:Core/Src/dynamics.c ****         YAW.z = (canRx[4] << 8) + canRx[5];
  50:Core/Src/dynamics.c ****         break;
  51:Core/Src/dynamics.c **** 
ARM GAS  /tmp/ccM2egNd.s 			page 12


  52:Core/Src/dynamics.c ****     default:
  53:Core/Src/dynamics.c ****         break;
  54:Core/Src/dynamics.c ****     }
  55:Core/Src/dynamics.c **** }...
 463              		.loc 2 55 1 is_stmt 0 view .LVU84
 464 004e 38BD     		pop	{r3, r4, r5, pc}
 465              	.LVL39:
 466              	.L35:
  23:Core/Src/dynamics.c ****         GPS.speed = (canRx[0] << 8) + canRx[1];
 467              		.loc 2 23 9 is_stmt 1 view .LVU85
  23:Core/Src/dynamics.c ****         GPS.speed = (canRx[0] << 8) + canRx[1];
 468              		.loc 2 23 27 is_stmt 0 view .LVU86
 469 0050 0B78     		ldrb	r3, [r1]	@ zero_extendqisi2
  23:Core/Src/dynamics.c ****         GPS.speed = (canRx[0] << 8) + canRx[1];
 470              		.loc 2 23 44 view .LVU87
 471 0052 4A78     		ldrb	r2, [r1, #1]	@ zero_extendqisi2
  23:Core/Src/dynamics.c ****         GPS.speed = (canRx[0] << 8) + canRx[1];
 472              		.loc 2 23 37 view .LVU88
 473 0054 02EB0322 		add	r2, r2, r3, lsl #8
  23:Core/Src/dynamics.c ****         GPS.speed = (canRx[0] << 8) + canRx[1];
 474              		.loc 2 23 19 view .LVU89
 475 0058 214B     		ldr	r3, .L38
 476 005a 1A81     		strh	r2, [r3, #8]	@ movhi
  24:Core/Src/dynamics.c ****         GPS.alt = (canRx[2] << 8) + canRx[3];
 477              		.loc 2 24 9 is_stmt 1 view .LVU90
  24:Core/Src/dynamics.c ****         GPS.alt = (canRx[2] << 8) + canRx[3];
 478              		.loc 2 24 25 is_stmt 0 view .LVU91
 479 005c 8978     		ldrb	r1, [r1, #2]	@ zero_extendqisi2
 480              	.LVL40:
  24:Core/Src/dynamics.c ****         GPS.alt = (canRx[2] << 8) + canRx[3];
 481              		.loc 2 24 42 view .LVU92
 482 005e E278     		ldrb	r2, [r4, #3]	@ zero_extendqisi2
  24:Core/Src/dynamics.c ****         GPS.alt = (canRx[2] << 8) + canRx[3];
 483              		.loc 2 24 35 view .LVU93
 484 0060 02EB0122 		add	r2, r2, r1, lsl #8
  24:Core/Src/dynamics.c ****         GPS.alt = (canRx[2] << 8) + canRx[3];
 485              		.loc 2 24 17 view .LVU94
 486 0064 5A81     		strh	r2, [r3, #10]	@ movhi
  25:Core/Src/dynamics.c ****         GPS.course = (canRx[4] << 8) + canRx[5];
 487              		.loc 2 25 9 is_stmt 1 view .LVU95
  25:Core/Src/dynamics.c ****         GPS.course = (canRx[4] << 8) + canRx[5];
 488              		.loc 2 25 28 is_stmt 0 view .LVU96
 489 0066 2179     		ldrb	r1, [r4, #4]	@ zero_extendqisi2
  25:Core/Src/dynamics.c ****         GPS.course = (canRx[4] << 8) + canRx[5];
 490              		.loc 2 25 45 view .LVU97
 491 0068 6279     		ldrb	r2, [r4, #5]	@ zero_extendqisi2
  25:Core/Src/dynamics.c ****         GPS.course = (canRx[4] << 8) + canRx[5];
 492              		.loc 2 25 38 view .LVU98
 493 006a 02EB0122 		add	r2, r2, r1, lsl #8
  25:Core/Src/dynamics.c ****         GPS.course = (canRx[4] << 8) + canRx[5];
 494              		.loc 2 25 20 view .LVU99
 495 006e 9A81     		strh	r2, [r3, #12]	@ movhi
  26:Core/Src/dynamics.c ****         GPS.speed = canRx[6];
 496              		.loc 2 26 9 is_stmt 1 view .LVU100
  26:Core/Src/dynamics.c ****         GPS.speed = canRx[6];
 497              		.loc 2 26 26 is_stmt 0 view .LVU101
 498 0070 A279     		ldrb	r2, [r4, #6]	@ zero_extendqisi2
ARM GAS  /tmp/ccM2egNd.s 			page 13


  26:Core/Src/dynamics.c ****         GPS.speed = canRx[6];
 499              		.loc 2 26 19 view .LVU102
 500 0072 1A81     		strh	r2, [r3, #8]	@ movhi
  27:Core/Src/dynamics.c ****         GPS.valid_10hz = canRx[7];
 501              		.loc 2 27 9 is_stmt 1 view .LVU103
  27:Core/Src/dynamics.c ****         GPS.valid_10hz = canRx[7];
 502              		.loc 2 27 24 is_stmt 0 view .LVU104
 503 0074 E279     		ldrb	r2, [r4, #7]	@ zero_extendqisi2
 504 0076 DA73     		strb	r2, [r3, #15]
  28:Core/Src/dynamics.c ****         break;
 505              		.loc 2 28 9 is_stmt 1 view .LVU105
 506 0078 E9E7     		b	.L29
 507              	.LVL41:
 508              	.L34:
  31:Core/Src/dynamics.c ****         UTC.valid_5hz = canRx[0];
 509              		.loc 2 31 9 view .LVU106
  31:Core/Src/dynamics.c ****         UTC.valid_5hz = canRx[0];
 510              		.loc 2 31 30 is_stmt 0 view .LVU107
 511 007a 0A78     		ldrb	r2, [r1]	@ zero_extendqisi2
  31:Core/Src/dynamics.c ****         UTC.valid_5hz = canRx[0];
 512              		.loc 2 31 23 view .LVU108
 513 007c 194B     		ldr	r3, .L38+4
 514 007e 1A70     		strb	r2, [r3]
  32:Core/Src/dynamics.c ****         UTC.year = canRx[1];
 515              		.loc 2 32 9 is_stmt 1 view .LVU109
  32:Core/Src/dynamics.c ****         UTC.year = canRx[1];
 516              		.loc 2 32 18 is_stmt 0 view .LVU110
 517 0080 4A78     		ldrb	r2, [r1, #1]	@ zero_extendqisi2
 518 0082 5A70     		strb	r2, [r3, #1]
  33:Core/Src/dynamics.c ****         UTC.month = canRx[2];
 519              		.loc 2 33 9 is_stmt 1 view .LVU111
  33:Core/Src/dynamics.c ****         UTC.month = canRx[2];
 520              		.loc 2 33 19 is_stmt 0 view .LVU112
 521 0084 8A78     		ldrb	r2, [r1, #2]	@ zero_extendqisi2
 522 0086 9A70     		strb	r2, [r3, #2]
  34:Core/Src/dynamics.c ****         UTC.day = canRx[3];
 523              		.loc 2 34 9 is_stmt 1 view .LVU113
  34:Core/Src/dynamics.c ****         UTC.day = canRx[3];
 524              		.loc 2 34 17 is_stmt 0 view .LVU114
 525 0088 CA78     		ldrb	r2, [r1, #3]	@ zero_extendqisi2
 526 008a DA70     		strb	r2, [r3, #3]
  35:Core/Src/dynamics.c ****         UTC.hours = canRx[5];
 527              		.loc 2 35 9 is_stmt 1 view .LVU115
  35:Core/Src/dynamics.c ****         UTC.hours = canRx[5];
 528              		.loc 2 35 19 is_stmt 0 view .LVU116
 529 008c 4A79     		ldrb	r2, [r1, #5]	@ zero_extendqisi2
 530 008e 1A71     		strb	r2, [r3, #4]
  36:Core/Src/dynamics.c ****         UTC.minutes = canRx[6];
 531              		.loc 2 36 9 is_stmt 1 view .LVU117
  36:Core/Src/dynamics.c ****         UTC.minutes = canRx[6];
 532              		.loc 2 36 21 is_stmt 0 view .LVU118
 533 0090 8A79     		ldrb	r2, [r1, #6]	@ zero_extendqisi2
 534 0092 5A71     		strb	r2, [r3, #5]
  37:Core/Src/dynamics.c ****         UTC.seconds = canRx[7];
 535              		.loc 2 37 9 is_stmt 1 view .LVU119
  37:Core/Src/dynamics.c ****         UTC.seconds = canRx[7];
 536              		.loc 2 37 21 is_stmt 0 view .LVU120
ARM GAS  /tmp/ccM2egNd.s 			page 14


 537 0094 CA79     		ldrb	r2, [r1, #7]	@ zero_extendqisi2
 538 0096 9A71     		strb	r2, [r3, #6]
  38:Core/Src/dynamics.c ****         break;
 539              		.loc 2 38 9 is_stmt 1 view .LVU121
 540 0098 D9E7     		b	.L29
 541              	.L33:
  41:Core/Src/dynamics.c ****         ACCEL.x = (canRx[0] << 8) + canRx[1];
 542              		.loc 2 41 9 view .LVU122
  41:Core/Src/dynamics.c ****         ACCEL.x = (canRx[0] << 8) + canRx[1];
 543              		.loc 2 41 25 is_stmt 0 view .LVU123
 544 009a 0B78     		ldrb	r3, [r1]	@ zero_extendqisi2
  41:Core/Src/dynamics.c ****         ACCEL.x = (canRx[0] << 8) + canRx[1];
 545              		.loc 2 41 42 view .LVU124
 546 009c 4A78     		ldrb	r2, [r1, #1]	@ zero_extendqisi2
  41:Core/Src/dynamics.c ****         ACCEL.x = (canRx[0] << 8) + canRx[1];
 547              		.loc 2 41 35 view .LVU125
 548 009e 02EB0322 		add	r2, r2, r3, lsl #8
  41:Core/Src/dynamics.c ****         ACCEL.x = (canRx[0] << 8) + canRx[1];
 549              		.loc 2 41 17 view .LVU126
 550 00a2 114B     		ldr	r3, .L38+8
 551 00a4 1A80     		strh	r2, [r3]	@ movhi
  42:Core/Src/dynamics.c ****         ACCEL.y = (canRx[2] << 8) + canRx[3];
 552              		.loc 2 42 9 is_stmt 1 view .LVU127
  42:Core/Src/dynamics.c ****         ACCEL.y = (canRx[2] << 8) + canRx[3];
 553              		.loc 2 42 25 is_stmt 0 view .LVU128
 554 00a6 8978     		ldrb	r1, [r1, #2]	@ zero_extendqisi2
 555              	.LVL42:
  42:Core/Src/dynamics.c ****         ACCEL.y = (canRx[2] << 8) + canRx[3];
 556              		.loc 2 42 42 view .LVU129
 557 00a8 E278     		ldrb	r2, [r4, #3]	@ zero_extendqisi2
  42:Core/Src/dynamics.c ****         ACCEL.y = (canRx[2] << 8) + canRx[3];
 558              		.loc 2 42 35 view .LVU130
 559 00aa 02EB0122 		add	r2, r2, r1, lsl #8
  42:Core/Src/dynamics.c ****         ACCEL.y = (canRx[2] << 8) + canRx[3];
 560              		.loc 2 42 17 view .LVU131
 561 00ae 5A80     		strh	r2, [r3, #2]	@ movhi
  43:Core/Src/dynamics.c ****         ACCEL.z = (canRx[4] << 8) + canRx[5];
 562              		.loc 2 43 9 is_stmt 1 view .LVU132
  43:Core/Src/dynamics.c ****         ACCEL.z = (canRx[4] << 8) + canRx[5];
 563              		.loc 2 43 25 is_stmt 0 view .LVU133
 564 00b0 2179     		ldrb	r1, [r4, #4]	@ zero_extendqisi2
  43:Core/Src/dynamics.c ****         ACCEL.z = (canRx[4] << 8) + canRx[5];
 565              		.loc 2 43 42 view .LVU134
 566 00b2 6279     		ldrb	r2, [r4, #5]	@ zero_extendqisi2
  43:Core/Src/dynamics.c ****         ACCEL.z = (canRx[4] << 8) + canRx[5];
 567              		.loc 2 43 35 view .LVU135
 568 00b4 02EB0122 		add	r2, r2, r1, lsl #8
  43:Core/Src/dynamics.c ****         ACCEL.z = (canRx[4] << 8) + canRx[5];
 569              		.loc 2 43 17 view .LVU136
 570 00b8 9A80     		strh	r2, [r3, #4]	@ movhi
  44:Core/Src/dynamics.c ****         break;
 571              		.loc 2 44 9 is_stmt 1 view .LVU137
 572 00ba C8E7     		b	.L29
 573              	.LVL43:
 574              	.L31:
  47:Core/Src/dynamics.c ****         YAW.x = (canRx[0] << 8) + canRx[1];
 575              		.loc 2 47 9 view .LVU138
ARM GAS  /tmp/ccM2egNd.s 			page 15


  47:Core/Src/dynamics.c ****         YAW.x = (canRx[0] << 8) + canRx[1];
 576              		.loc 2 47 23 is_stmt 0 view .LVU139
 577 00bc 0B78     		ldrb	r3, [r1]	@ zero_extendqisi2
  47:Core/Src/dynamics.c ****         YAW.x = (canRx[0] << 8) + canRx[1];
 578              		.loc 2 47 40 view .LVU140
 579 00be 4A78     		ldrb	r2, [r1, #1]	@ zero_extendqisi2
  47:Core/Src/dynamics.c ****         YAW.x = (canRx[0] << 8) + canRx[1];
 580              		.loc 2 47 33 view .LVU141
 581 00c0 02EB0322 		add	r2, r2, r3, lsl #8
  47:Core/Src/dynamics.c ****         YAW.x = (canRx[0] << 8) + canRx[1];
 582              		.loc 2 47 15 view .LVU142
 583 00c4 094B     		ldr	r3, .L38+12
 584 00c6 1A80     		strh	r2, [r3]	@ movhi
  48:Core/Src/dynamics.c ****         YAW.y = (canRx[2] << 8) + canRx[3];
 585              		.loc 2 48 9 is_stmt 1 view .LVU143
  48:Core/Src/dynamics.c ****         YAW.y = (canRx[2] << 8) + canRx[3];
 586              		.loc 2 48 23 is_stmt 0 view .LVU144
 587 00c8 8978     		ldrb	r1, [r1, #2]	@ zero_extendqisi2
 588              	.LVL44:
  48:Core/Src/dynamics.c ****         YAW.y = (canRx[2] << 8) + canRx[3];
 589              		.loc 2 48 40 view .LVU145
 590 00ca E278     		ldrb	r2, [r4, #3]	@ zero_extendqisi2
  48:Core/Src/dynamics.c ****         YAW.y = (canRx[2] << 8) + canRx[3];
 591              		.loc 2 48 33 view .LVU146
 592 00cc 02EB0122 		add	r2, r2, r1, lsl #8
  48:Core/Src/dynamics.c ****         YAW.y = (canRx[2] << 8) + canRx[3];
 593              		.loc 2 48 15 view .LVU147
 594 00d0 5A80     		strh	r2, [r3, #2]	@ movhi
  49:Core/Src/dynamics.c ****         YAW.z = (canRx[4] << 8) + canRx[5];
 595              		.loc 2 49 9 is_stmt 1 view .LVU148
  49:Core/Src/dynamics.c ****         YAW.z = (canRx[4] << 8) + canRx[5];
 596              		.loc 2 49 23 is_stmt 0 view .LVU149
 597 00d2 2179     		ldrb	r1, [r4, #4]	@ zero_extendqisi2
  49:Core/Src/dynamics.c ****         YAW.z = (canRx[4] << 8) + canRx[5];
 598              		.loc 2 49 40 view .LVU150
 599 00d4 6279     		ldrb	r2, [r4, #5]	@ zero_extendqisi2
  49:Core/Src/dynamics.c ****         YAW.z = (canRx[4] << 8) + canRx[5];
 600              		.loc 2 49 33 view .LVU151
 601 00d6 02EB0122 		add	r2, r2, r1, lsl #8
  49:Core/Src/dynamics.c ****         YAW.z = (canRx[4] << 8) + canRx[5];
 602              		.loc 2 49 15 view .LVU152
 603 00da 9A80     		strh	r2, [r3, #4]	@ movhi
  50:Core/Src/dynamics.c ****         break;
 604              		.loc 2 50 9 is_stmt 1 view .LVU153
 605              		.loc 2 55 1 is_stmt 0 view .LVU154
 606 00dc B7E7     		b	.L29
 607              	.L39:
 608 00de 00BF     		.align	2
 609              	.L38:
 610 00e0 00000000 		.word	GPS
 611 00e4 00000000 		.word	UTC
 612 00e8 00000000 		.word	ACCEL
 613 00ec 00000000 		.word	YAW
 614              		.cfi_endproc
 615              	.LFE73:
 617              		.comm	YAW,6,4
 618              		.comm	ACCEL,6,4
ARM GAS  /tmp/ccM2egNd.s 			page 16


 619              		.comm	UTC,7,4
 620              		.comm	GPS,16,4
 621              		.comm	canDebug,4,4
 622              		.comm	txCycle2,4,4
 623              		.comm	txCycle,4,4
 624              		.comm	canTx2,8,4
 625              		.comm	canTx,8,4
 626              		.comm	canMailbox2,4,4
 627              		.comm	canMailbox,4,4
 628              		.comm	canRx2,8,4
 629              		.comm	canRx,8,4
 630              		.comm	txMsgExt2,24,4
 631              		.comm	txMsg2,24,4
 632              		.comm	rxMsg2,28,4
 633              		.comm	txMsgExt,24,4
 634              		.comm	txMsg,24,4
 635              		.comm	rxMsg,28,4
 636              		.comm	sf5,40,4
 637              		.comm	sf4,40,4
 638              		.comm	sf3,40,4
 639              		.comm	sf2,40,4
 640              		.comm	sf,40,4
 641              		.comm	hcan2,40,4
 642              		.comm	hcan1,40,4
 643              		.comm	LIDAR,8,4
 644              		.comm	te,12,4
 645              		.comm	taskTime,32,4
 646              		.comm	BMS,20,4
 647              		.comm	charger,3,4
 648              		.comm	vcu,7,4
 649              		.comm	iboost,2,4
 650              		.comm	ldu,18,4
 651              		.comm	tempdata,4,4
 652              		.comm	ADC_data,12,4
 653              		.comm	tenderActive,1,1
 654              		.comm	time_now,4,4
 655              		.comm	period,4,4
 656              		.comm	DCDC,4,4
 657              		.text
 658              	.Letext0:
 659              		.file 3 "/usr/lib/gcc/arm-none-eabi/9.2.1/include/stdint.h"
 660              		.file 4 "Drivers/CMSIS/Include/core_cm3.h"
 661              		.file 5 "Drivers/CMSIS/Device/ST/STM32F1xx/Include/system_stm32f1xx.h"
 662              		.file 6 "Drivers/CMSIS/Device/ST/STM32F1xx/Include/stm32f105xc.h"
 663              		.file 7 "Drivers/CMSIS/Device/ST/STM32F1xx/Include/stm32f1xx.h"
 664              		.file 8 "Drivers/STM32F1xx_HAL_Driver/Inc/stm32f1xx_hal_can.h"
 665              		.file 9 "Drivers/STM32F1xx_HAL_Driver/Inc/stm32f1xx_hal.h"
 666              		.file 10 "/usr/lib/gcc/arm-none-eabi/9.2.1/include/stddef.h"
 667              		.file 11 "/usr/include/newlib/sys/_types.h"
 668              		.file 12 "/usr/include/newlib/sys/reent.h"
 669              		.file 13 "/usr/include/newlib/sys/lock.h"
 670              		.file 14 "Core/Inc/dcdc.h"
 671              		.file 15 "Core/Inc/vcu.h"
 672              		.file 16 "Core/Inc/encoder.h"
 673              		.file 17 "Core/Inc/lidar.h"
 674              		.file 18 "Core/Inc/can_setup.h"
 675              		.file 19 "/usr/include/newlib/math.h"
ARM GAS  /tmp/ccM2egNd.s 			page 17


 676              		.file 20 "Core/Inc/dynamics.h"
ARM GAS  /tmp/ccM2egNd.s 			page 18

