ARM GAS  /tmp/ccZ3fMgE.s 			page 1


   1              		.cpu cortex-m3
   2              		.eabi_attribute 20, 1
   3              		.eabi_attribute 21, 1
   4              		.eabi_attribute 23, 3
   5              		.eabi_attribute 24, 1
   6              		.eabi_attribute 25, 1
   7              		.eabi_attribute 26, 1
   8              		.eabi_attribute 30, 1
   9              		.eabi_attribute 34, 1
  10              		.eabi_attribute 18, 4
  11              		.file	"encoder.c"
  12              		.text
  13              	.Ltext0:
  14              		.cfi_sections	.debug_frame
  15              		.section	.text.setWidget,"ax",%progbits
  16              		.align	1
  17              		.global	setWidget
  18              		.arch armv7-m
  19              		.syntax unified
  20              		.thumb
  21              		.thumb_func
  22              		.fpu softvfp
  24              	setWidget:
  25              	.LVL0:
  26              	.LFB68:
  27              		.file 1 "Core/Src/encoder.c"
   1:Core/Src/encoder.c **** 
   2:Core/Src/encoder.c **** #include "encoder.h"
   3:Core/Src/encoder.c **** 
   4:Core/Src/encoder.c **** void setWidget(uint8_t screenNum, uint8_t valueId, uint16_t currentVal, int gain)
   5:Core/Src/encoder.c **** {
  28              		.loc 1 5 1 view -0
  29              		.cfi_startproc
  30              		@ args = 0, pretend = 0, frame = 0
  31              		@ frame_needed = 0, uses_anonymous_args = 0
  32              		.loc 1 5 1 is_stmt 0 view .LVU1
  33 0000 70B5     		push	{r4, r5, r6, lr}
  34              		.cfi_def_cfa_offset 16
  35              		.cfi_offset 4, -16
  36              		.cfi_offset 5, -12
  37              		.cfi_offset 6, -8
  38              		.cfi_offset 14, -4
  39 0002 0546     		mov	r5, r0
  40 0004 0C46     		mov	r4, r1
   6:Core/Src/encoder.c **** 
   7:Core/Src/encoder.c ****     txMsgExt2.ExtId = CONTROL;
  41              		.loc 1 7 5 is_stmt 1 view .LVU2
  42              		.loc 1 7 21 is_stmt 0 view .LVU3
  43 0006 0A48     		ldr	r0, .L3
  44              	.LVL1:
  45              		.loc 1 7 21 view .LVU4
  46 0008 0A49     		ldr	r1, .L3+4
  47              	.LVL2:
  48              		.loc 1 7 21 view .LVU5
  49 000a 4160     		str	r1, [r0, #4]
   8:Core/Src/encoder.c ****     txMsgExt2.DLC = 8;
  50              		.loc 1 8 5 is_stmt 1 view .LVU6
ARM GAS  /tmp/ccZ3fMgE.s 			page 2


  51              		.loc 1 8 19 is_stmt 0 view .LVU7
  52 000c 0821     		movs	r1, #8
  53 000e 0161     		str	r1, [r0, #16]
   9:Core/Src/encoder.c ****     canTx2[0] = 0x11; // Force Widget Data
  54              		.loc 1 9 5 is_stmt 1 view .LVU8
  55              		.loc 1 9 15 is_stmt 0 view .LVU9
  56 0010 0949     		ldr	r1, .L3+8
  57 0012 1126     		movs	r6, #17
  58 0014 0E70     		strb	r6, [r1]
  10:Core/Src/encoder.c ****     canTx2[1] = screenNum;
  59              		.loc 1 10 5 is_stmt 1 view .LVU10
  60              		.loc 1 10 15 is_stmt 0 view .LVU11
  61 0016 4D70     		strb	r5, [r1, #1]
  11:Core/Src/encoder.c ****     canTx2[2] = valueId;
  62              		.loc 1 11 5 is_stmt 1 view .LVU12
  63              		.loc 1 11 15 is_stmt 0 view .LVU13
  64 0018 8C70     		strb	r4, [r1, #2]
  12:Core/Src/encoder.c ****     canTx2[3] = currentVal & 0xFF;
  65              		.loc 1 12 5 is_stmt 1 view .LVU14
  66              		.loc 1 12 15 is_stmt 0 view .LVU15
  67 001a CA70     		strb	r2, [r1, #3]
  13:Core/Src/encoder.c ****     canTx2[4] = (currentVal >> 8) & 0xFF;
  68              		.loc 1 13 5 is_stmt 1 view .LVU16
  69              		.loc 1 13 15 is_stmt 0 view .LVU17
  70 001c 120A     		lsrs	r2, r2, #8
  71              	.LVL3:
  72              		.loc 1 13 15 view .LVU18
  73 001e 0A71     		strb	r2, [r1, #4]
  14:Core/Src/encoder.c ****     canTx2[5] = gain;    // Display Code placeholder
  74              		.loc 1 14 5 is_stmt 1 view .LVU19
  75              		.loc 1 14 15 is_stmt 0 view .LVU20
  76 0020 4B71     		strb	r3, [r1, #5]
  15:Core/Src/encoder.c ****     canTx2[6] = valueId; // Value Active ID  0x00-not used, 0x01 Value 1 currently active
  77              		.loc 1 15 5 is_stmt 1 view .LVU21
  78              		.loc 1 15 15 is_stmt 0 view .LVU22
  79 0022 8C71     		strb	r4, [r1, #6]
  16:Core/Src/encoder.c ****     canTx2[7] = 0xFF;
  80              		.loc 1 16 5 is_stmt 1 view .LVU23
  81              		.loc 1 16 15 is_stmt 0 view .LVU24
  82 0024 FF23     		movs	r3, #255
  83              	.LVL4:
  84              		.loc 1 16 15 view .LVU25
  85 0026 CB71     		strb	r3, [r1, #7]
  17:Core/Src/encoder.c ****     // te.currentScreen = screenNum; //rely on RX values
  18:Core/Src/encoder.c ****     c2txExt(&txMsgExt2, canTx2);
  86              		.loc 1 18 5 is_stmt 1 view .LVU26
  87 0028 FFF7FEFF 		bl	c2txExt
  88              	.LVL5:
  19:Core/Src/encoder.c **** }
  89              		.loc 1 19 1 is_stmt 0 view .LVU27
  90 002c 70BD     		pop	{r4, r5, r6, pc}
  91              	.L4:
  92 002e 00BF     		.align	2
  93              	.L3:
  94 0030 00000000 		.word	txMsgExt2
  95 0034 21F2EF18 		.word	418378273
  96 0038 00000000 		.word	canTx2
ARM GAS  /tmp/ccZ3fMgE.s 			page 3


  97              		.cfi_endproc
  98              	.LFE68:
 100              		.section	.text.setBacklight,"ax",%progbits
 101              		.align	1
 102              		.global	setBacklight
 103              		.syntax unified
 104              		.thumb
 105              		.thumb_func
 106              		.fpu softvfp
 108              	setBacklight:
 109              	.LVL6:
 110              	.LFB69:
  20:Core/Src/encoder.c **** 
  21:Core/Src/encoder.c **** void setBacklight(uint8_t level)
  22:Core/Src/encoder.c **** {
 111              		.loc 1 22 1 is_stmt 1 view -0
 112              		.cfi_startproc
 113              		@ args = 0, pretend = 0, frame = 0
 114              		@ frame_needed = 0, uses_anonymous_args = 0
 115              		.loc 1 22 1 is_stmt 0 view .LVU29
 116 0000 08B5     		push	{r3, lr}
 117              		.cfi_def_cfa_offset 8
 118              		.cfi_offset 3, -8
 119              		.cfi_offset 14, -4
  23:Core/Src/encoder.c ****     txMsgExt2.ExtId = CONTROL;
 120              		.loc 1 23 5 is_stmt 1 view .LVU30
 121              		.loc 1 23 21 is_stmt 0 view .LVU31
 122 0002 0A4A     		ldr	r2, .L7
 123 0004 0A4B     		ldr	r3, .L7+4
 124 0006 5360     		str	r3, [r2, #4]
  24:Core/Src/encoder.c ****     txMsgExt2.DLC = 8;
 125              		.loc 1 24 5 is_stmt 1 view .LVU32
 126              		.loc 1 24 19 is_stmt 0 view .LVU33
 127 0008 0823     		movs	r3, #8
 128 000a 1361     		str	r3, [r2, #16]
  25:Core/Src/encoder.c ****     canTx2[0] = 0x80; // Screen brightness
 129              		.loc 1 25 5 is_stmt 1 view .LVU34
 130              		.loc 1 25 15 is_stmt 0 view .LVU35
 131 000c 0949     		ldr	r1, .L7+8
 132 000e 8023     		movs	r3, #128
 133 0010 0B70     		strb	r3, [r1]
  26:Core/Src/encoder.c ****     canTx2[1] = 0xFF;
 134              		.loc 1 26 5 is_stmt 1 view .LVU36
 135              		.loc 1 26 15 is_stmt 0 view .LVU37
 136 0012 FF23     		movs	r3, #255
 137 0014 4B70     		strb	r3, [r1, #1]
  27:Core/Src/encoder.c ****     canTx2[2] = level; // value 0-100
 138              		.loc 1 27 5 is_stmt 1 view .LVU38
 139              		.loc 1 27 15 is_stmt 0 view .LVU39
 140 0016 8870     		strb	r0, [r1, #2]
  28:Core/Src/encoder.c ****     canTx2[3] = 0xFF;
 141              		.loc 1 28 5 is_stmt 1 view .LVU40
 142              		.loc 1 28 15 is_stmt 0 view .LVU41
 143 0018 CB70     		strb	r3, [r1, #3]
  29:Core/Src/encoder.c ****     canTx2[4] = 0xFF;
 144              		.loc 1 29 5 is_stmt 1 view .LVU42
 145              		.loc 1 29 15 is_stmt 0 view .LVU43
ARM GAS  /tmp/ccZ3fMgE.s 			page 4


 146 001a 0B71     		strb	r3, [r1, #4]
  30:Core/Src/encoder.c ****     canTx2[5] = 0xFF;
 147              		.loc 1 30 5 is_stmt 1 view .LVU44
 148              		.loc 1 30 15 is_stmt 0 view .LVU45
 149 001c 4B71     		strb	r3, [r1, #5]
  31:Core/Src/encoder.c ****     canTx2[6] = 0xFF;
 150              		.loc 1 31 5 is_stmt 1 view .LVU46
 151              		.loc 1 31 15 is_stmt 0 view .LVU47
 152 001e 8B71     		strb	r3, [r1, #6]
  32:Core/Src/encoder.c ****     canTx2[7] = 0xFF;
 153              		.loc 1 32 5 is_stmt 1 view .LVU48
 154              		.loc 1 32 15 is_stmt 0 view .LVU49
 155 0020 CB71     		strb	r3, [r1, #7]
  33:Core/Src/encoder.c ****     c2txExt(&txMsgExt2, canTx2);
 156              		.loc 1 33 5 is_stmt 1 view .LVU50
 157 0022 1046     		mov	r0, r2
 158              	.LVL7:
 159              		.loc 1 33 5 is_stmt 0 view .LVU51
 160 0024 FFF7FEFF 		bl	c2txExt
 161              	.LVL8:
  34:Core/Src/encoder.c **** }
 162              		.loc 1 34 1 view .LVU52
 163 0028 08BD     		pop	{r3, pc}
 164              	.L8:
 165 002a 00BF     		.align	2
 166              	.L7:
 167 002c 00000000 		.word	txMsgExt2
 168 0030 21F2EF18 		.word	418378273
 169 0034 00000000 		.word	canTx2
 170              		.cfi_endproc
 171              	.LFE69:
 173              		.section	.text.getEvent,"ax",%progbits
 174              		.align	1
 175              		.global	getEvent
 176              		.syntax unified
 177              		.thumb
 178              		.thumb_func
 179              		.fpu softvfp
 181              	getEvent:
 182              	.LVL9:
 183              	.LFB70:
  35:Core/Src/encoder.c **** 
  36:Core/Src/encoder.c **** void getEvent(CAN_RxHeaderTypeDef *rxMsg, uint8_t *canRx)
  37:Core/Src/encoder.c **** {
 184              		.loc 1 37 1 is_stmt 1 view -0
 185              		.cfi_startproc
 186              		@ args = 0, pretend = 0, frame = 0
 187              		@ frame_needed = 0, uses_anonymous_args = 0
 188              		@ link register save eliminated.
  38:Core/Src/encoder.c **** 
  39:Core/Src/encoder.c ****     if (rxMsg->ExtId == EVENT)
 189              		.loc 1 39 5 view .LVU54
 190              		.loc 1 39 14 is_stmt 0 view .LVU55
 191 0000 4268     		ldr	r2, [r0, #4]
 192              		.loc 1 39 8 view .LVU56
 193 0002 084B     		ldr	r3, .L12
 194 0004 9A42     		cmp	r2, r3
ARM GAS  /tmp/ccZ3fMgE.s 			page 5


 195 0006 00D0     		beq	.L11
 196              	.LVL10:
 197              	.L9:
  40:Core/Src/encoder.c ****     {
  41:Core/Src/encoder.c ****         te.currentScreen = canRx[0];
  42:Core/Src/encoder.c ****         // canRx[1] Reserved
  43:Core/Src/encoder.c ****         // canRx[2] 0x01 Events
  44:Core/Src/encoder.c ****         te.knob = canRx[3];
  45:Core/Src/encoder.c ****         te.tap = (canRx[4]) + (canRx[5] << 8);
  46:Core/Src/encoder.c ****         te.swipe = canRx[6];
  47:Core/Src/encoder.c ****     }
  48:Core/Src/encoder.c **** }
 198              		.loc 1 48 1 view .LVU57
 199 0008 7047     		bx	lr
 200              	.LVL11:
 201              	.L11:
  41:Core/Src/encoder.c ****         // canRx[1] Reserved
 202              		.loc 1 41 9 is_stmt 1 view .LVU58
  41:Core/Src/encoder.c ****         // canRx[1] Reserved
 203              		.loc 1 41 33 is_stmt 0 view .LVU59
 204 000a 0A78     		ldrb	r2, [r1]	@ zero_extendqisi2
  41:Core/Src/encoder.c ****         // canRx[1] Reserved
 205              		.loc 1 41 26 view .LVU60
 206 000c 064B     		ldr	r3, .L12+4
 207 000e 1A70     		strb	r2, [r3]
  44:Core/Src/encoder.c ****         te.tap = (canRx[4]) + (canRx[5] << 8);
 208              		.loc 1 44 9 is_stmt 1 view .LVU61
  44:Core/Src/encoder.c ****         te.tap = (canRx[4]) + (canRx[5] << 8);
 209              		.loc 1 44 17 is_stmt 0 view .LVU62
 210 0010 CA78     		ldrb	r2, [r1, #3]	@ zero_extendqisi2
 211 0012 5A70     		strb	r2, [r3, #1]
  45:Core/Src/encoder.c ****         te.swipe = canRx[6];
 212              		.loc 1 45 9 is_stmt 1 view .LVU63
  45:Core/Src/encoder.c ****         te.swipe = canRx[6];
 213              		.loc 1 45 24 is_stmt 0 view .LVU64
 214 0014 0A79     		ldrb	r2, [r1, #4]	@ zero_extendqisi2
  45:Core/Src/encoder.c ****         te.swipe = canRx[6];
 215              		.loc 1 45 37 view .LVU65
 216 0016 4879     		ldrb	r0, [r1, #5]	@ zero_extendqisi2
 217              	.LVL12:
  45:Core/Src/encoder.c ****         te.swipe = canRx[6];
 218              		.loc 1 45 29 view .LVU66
 219 0018 02EB0022 		add	r2, r2, r0, lsl #8
  45:Core/Src/encoder.c ****         te.swipe = canRx[6];
 220              		.loc 1 45 16 view .LVU67
 221 001c 5A80     		strh	r2, [r3, #2]	@ movhi
  46:Core/Src/encoder.c ****     }
 222              		.loc 1 46 9 is_stmt 1 view .LVU68
  46:Core/Src/encoder.c ****     }
 223              		.loc 1 46 18 is_stmt 0 view .LVU69
 224 001e 8A79     		ldrb	r2, [r1, #6]	@ zero_extendqisi2
 225 0020 1A71     		strb	r2, [r3, #4]
 226              		.loc 1 48 1 view .LVU70
 227 0022 F1E7     		b	.L9
 228              	.L13:
 229              		.align	2
 230              	.L12:
ARM GAS  /tmp/ccZ3fMgE.s 			page 6


 231 0024 F20FFF18 		.word	419368946
 232 0028 00000000 		.word	te
 233              		.cfi_endproc
 234              	.LFE70:
 236              		.section	.text.getData,"ax",%progbits
 237              		.align	1
 238              		.global	getData
 239              		.syntax unified
 240              		.thumb
 241              		.thumb_func
 242              		.fpu softvfp
 244              	getData:
 245              	.LVL13:
 246              	.LFB71:
  49:Core/Src/encoder.c **** 
  50:Core/Src/encoder.c **** void getData(CAN_RxHeaderTypeDef *rxMsg, uint8_t *canRx)
  51:Core/Src/encoder.c **** {
 247              		.loc 1 51 1 is_stmt 1 view -0
 248              		.cfi_startproc
 249              		@ args = 0, pretend = 0, frame = 0
 250              		@ frame_needed = 0, uses_anonymous_args = 0
 251              		@ link register save eliminated.
  52:Core/Src/encoder.c ****     if (rxMsg->ExtId == DATA)
 252              		.loc 1 52 5 view .LVU72
 253              		.loc 1 52 14 is_stmt 0 view .LVU73
 254 0000 4268     		ldr	r2, [r0, #4]
 255              		.loc 1 52 8 view .LVU74
 256 0002 094B     		ldr	r3, .L17
 257 0004 9A42     		cmp	r2, r3
 258 0006 00D0     		beq	.L16
 259              	.LVL14:
 260              	.L14:
  53:Core/Src/encoder.c ****     {
  54:Core/Src/encoder.c ****         te.currentScreen = canRx[0];
  55:Core/Src/encoder.c ****         // canRx[1] Reserved
  56:Core/Src/encoder.c ****         te.valueId = canRx[2];
  57:Core/Src/encoder.c ****         te.currentVal = canRx[3] + (canRx[4] << 8);
  58:Core/Src/encoder.c ****         te.dispCode = canRx[5];
  59:Core/Src/encoder.c ****         te.activeId = canRx[6];
  60:Core/Src/encoder.c ****     }
  61:Core/Src/encoder.c **** }
 261              		.loc 1 61 1 view .LVU75
 262 0008 7047     		bx	lr
 263              	.LVL15:
 264              	.L16:
  54:Core/Src/encoder.c ****         // canRx[1] Reserved
 265              		.loc 1 54 9 is_stmt 1 view .LVU76
  54:Core/Src/encoder.c ****         // canRx[1] Reserved
 266              		.loc 1 54 33 is_stmt 0 view .LVU77
 267 000a 0A78     		ldrb	r2, [r1]	@ zero_extendqisi2
  54:Core/Src/encoder.c ****         // canRx[1] Reserved
 268              		.loc 1 54 26 view .LVU78
 269 000c 074B     		ldr	r3, .L17+4
 270 000e 1A70     		strb	r2, [r3]
  56:Core/Src/encoder.c ****         te.currentVal = canRx[3] + (canRx[4] << 8);
 271              		.loc 1 56 9 is_stmt 1 view .LVU79
  56:Core/Src/encoder.c ****         te.currentVal = canRx[3] + (canRx[4] << 8);
ARM GAS  /tmp/ccZ3fMgE.s 			page 7


 272              		.loc 1 56 20 is_stmt 0 view .LVU80
 273 0010 8A78     		ldrb	r2, [r1, #2]	@ zero_extendqisi2
 274 0012 5A71     		strb	r2, [r3, #5]
  57:Core/Src/encoder.c ****         te.dispCode = canRx[5];
 275              		.loc 1 57 9 is_stmt 1 view .LVU81
  57:Core/Src/encoder.c ****         te.dispCode = canRx[5];
 276              		.loc 1 57 30 is_stmt 0 view .LVU82
 277 0014 CA78     		ldrb	r2, [r1, #3]	@ zero_extendqisi2
  57:Core/Src/encoder.c ****         te.dispCode = canRx[5];
 278              		.loc 1 57 42 view .LVU83
 279 0016 0879     		ldrb	r0, [r1, #4]	@ zero_extendqisi2
 280              	.LVL16:
  57:Core/Src/encoder.c ****         te.dispCode = canRx[5];
 281              		.loc 1 57 34 view .LVU84
 282 0018 02EB0022 		add	r2, r2, r0, lsl #8
  57:Core/Src/encoder.c ****         te.dispCode = canRx[5];
 283              		.loc 1 57 23 view .LVU85
 284 001c DA80     		strh	r2, [r3, #6]	@ movhi
  58:Core/Src/encoder.c ****         te.activeId = canRx[6];
 285              		.loc 1 58 9 is_stmt 1 view .LVU86
  58:Core/Src/encoder.c ****         te.activeId = canRx[6];
 286              		.loc 1 58 21 is_stmt 0 view .LVU87
 287 001e 4A79     		ldrb	r2, [r1, #5]	@ zero_extendqisi2
 288 0020 1A72     		strb	r2, [r3, #8]
  59:Core/Src/encoder.c ****     }
 289              		.loc 1 59 9 is_stmt 1 view .LVU88
  59:Core/Src/encoder.c ****     }
 290              		.loc 1 59 21 is_stmt 0 view .LVU89
 291 0022 8A79     		ldrb	r2, [r1, #6]	@ zero_extendqisi2
 292 0024 5A72     		strb	r2, [r3, #9]
 293              		.loc 1 61 1 view .LVU90
 294 0026 EFE7     		b	.L14
 295              	.L18:
 296              		.align	2
 297              	.L17:
 298 0028 F211FF18 		.word	419369458
 299 002c 00000000 		.word	te
 300              		.cfi_endproc
 301              	.LFE71:
 303              		.section	.text.encoderHandler,"ax",%progbits
 304              		.align	1
 305              		.global	encoderHandler
 306              		.syntax unified
 307              		.thumb
 308              		.thumb_func
 309              		.fpu softvfp
 311              	encoderHandler:
 312              	.LFB72:
  62:Core/Src/encoder.c **** 
  63:Core/Src/encoder.c **** void encoderHandler(void)
  64:Core/Src/encoder.c **** {
 313              		.loc 1 64 1 is_stmt 1 view -0
 314              		.cfi_startproc
 315              		@ args = 0, pretend = 0, frame = 0
 316              		@ frame_needed = 0, uses_anonymous_args = 0
 317 0000 10B5     		push	{r4, lr}
 318              		.cfi_def_cfa_offset 8
ARM GAS  /tmp/ccZ3fMgE.s 			page 8


 319              		.cfi_offset 4, -8
 320              		.cfi_offset 14, -4
  65:Core/Src/encoder.c ****     switch (te.currentScreen)
 321              		.loc 1 65 5 view .LVU92
 322              		.loc 1 65 15 is_stmt 0 view .LVU93
 323 0002 694B     		ldr	r3, .L42
 324 0004 1B78     		ldrb	r3, [r3]	@ zero_extendqisi2
 325 0006 013B     		subs	r3, r3, #1
 326 0008 0B2B     		cmp	r3, #11
 327 000a 0AD8     		bhi	.L20
 328 000c DFE803F0 		tbb	[pc, r3]
 329              	.L22:
 330 0010 06       		.byte	(.L29-.L22)/2
 331 0011 25       		.byte	(.L28-.L22)/2
 332 0012 15       		.byte	(.L27-.L22)/2
 333 0013 32       		.byte	(.L26-.L22)/2
 334 0014 09       		.byte	(.L20-.L22)/2
 335 0015 09       		.byte	(.L20-.L22)/2
 336 0016 46       		.byte	(.L25-.L22)/2
 337 0017 09       		.byte	(.L20-.L22)/2
 338 0018 09       		.byte	(.L20-.L22)/2
 339 0019 56       		.byte	(.L24-.L22)/2
 340 001a 64       		.byte	(.L23-.L22)/2
 341 001b 70       		.byte	(.L21-.L22)/2
 342              		.p2align 1
 343              	.L29:
  66:Core/Src/encoder.c ****     {
  67:Core/Src/encoder.c **** 
  68:Core/Src/encoder.c ****     case HOME:
  69:Core/Src/encoder.c ****         vcu.burnFlag = OFF;
 344              		.loc 1 69 9 is_stmt 1 view .LVU94
 345              		.loc 1 69 22 is_stmt 0 view .LVU95
 346 001c 634B     		ldr	r3, .L42+4
 347 001e 0022     		movs	r2, #0
 348 0020 9A71     		strb	r2, [r3, #6]
  70:Core/Src/encoder.c ****         break;
 349              		.loc 1 70 9 is_stmt 1 view .LVU96
 350              	.L20:
  71:Core/Src/encoder.c **** 
  72:Core/Src/encoder.c ****     /////// Gear Selection Screens /////////
  73:Core/Src/encoder.c ****     case FWD_REQ:
  74:Core/Src/encoder.c **** 
  75:Core/Src/encoder.c ****         // vcu.dio = FORWARD;
  76:Core/Src/encoder.c ****         canIOset(forward, ON);
  77:Core/Src/encoder.c ****         if (ldu.dir == FWD)
  78:Core/Src/encoder.c ****         {
  79:Core/Src/encoder.c ****             setWidget(FWD_CFM, 0, 0, 0);
  80:Core/Src/encoder.c ****         }
  81:Core/Src/encoder.c **** 
  82:Core/Src/encoder.c ****         break;
  83:Core/Src/encoder.c **** 
  84:Core/Src/encoder.c ****     case FWD_CFM:
  85:Core/Src/encoder.c ****         if (ldu.rpm >= 2000)
  86:Core/Src/encoder.c ****         {
  87:Core/Src/encoder.c ****             setWidget(HOME, 0, 0, 0);
  88:Core/Src/encoder.c ****         }
  89:Core/Src/encoder.c ****         break;
ARM GAS  /tmp/ccZ3fMgE.s 			page 9


  90:Core/Src/encoder.c **** 
  91:Core/Src/encoder.c ****     case NTRL_REQ:
  92:Core/Src/encoder.c ****         canIOset(forward, OFF);
  93:Core/Src/encoder.c ****         canIOset(reverse, OFF);
  94:Core/Src/encoder.c ****         if (ldu.dir == NTRL)
  95:Core/Src/encoder.c ****         {
  96:Core/Src/encoder.c ****             setWidget(NTRL_CFM, 0, 0, 0);
  97:Core/Src/encoder.c ****         }
  98:Core/Src/encoder.c ****         break;
  99:Core/Src/encoder.c **** 
 100:Core/Src/encoder.c ****     case REV_REQ:
 101:Core/Src/encoder.c ****         // vcu.dio = REVERSE;
 102:Core/Src/encoder.c ****         canIOset(reverse, ON);
 103:Core/Src/encoder.c ****         if (ldu.dir == REV)
 104:Core/Src/encoder.c ****         {
 105:Core/Src/encoder.c ****             setWidget(REV_CFM, 0, 0, 0);
 106:Core/Src/encoder.c ****         }
 107:Core/Src/encoder.c ****         break;
 108:Core/Src/encoder.c **** 
 109:Core/Src/encoder.c ****     /////////// Charging Data ///////////////////////
 110:Core/Src/encoder.c ****     case BATTERY:
 111:Core/Src/encoder.c ****         // if (vcu.state != charge_keyOff || vcu.state != charge_keyOn)
 112:Core/Src/encoder.c ****         //{
 113:Core/Src/encoder.c ****         setWidget(BATTERY, BATT_VOLT, BMS[0].volt, x1);
 114:Core/Src/encoder.c ****         setWidget(BATTERY, BATT_TEMP, BMS[0].temp, x1);
 115:Core/Src/encoder.c ****         //}
 116:Core/Src/encoder.c ****         break;
 117:Core/Src/encoder.c **** 
 118:Core/Src/encoder.c ****     ////////// Launch Control ////////////////////////
 119:Core/Src/encoder.c ****     case LAUNCH:
 120:Core/Src/encoder.c ****         if (vcu.state != launchMode)
 121:Core/Src/encoder.c ****         {
 122:Core/Src/encoder.c ****             setWidget(HOME, 0, 0, 0);
 123:Core/Src/encoder.c ****         }
 124:Core/Src/encoder.c ****         break;
 125:Core/Src/encoder.c **** 
 126:Core/Src/encoder.c ****         ////////// Burnout Mode //////////////////////////////
 127:Core/Src/encoder.c **** 
 128:Core/Src/encoder.c ****     case BURNOUT:
 129:Core/Src/encoder.c ****         vcu.burnFlag = ON;
 130:Core/Src/encoder.c ****         break;
 131:Core/Src/encoder.c ****         /*
 132:Core/Src/encoder.c ****     case READY_BURNOUT: //HOME BUTTON DISBLED
 133:Core/Src/encoder.c ****         if (ldu.pot < 1000)
 134:Core/Src/encoder.c ****         {
 135:Core/Src/encoder.c ****             vcu.burnFlag = OFF;
 136:Core/Src/encoder.c ****             setWidget(HOME, 0, 0, 0);
 137:Core/Src/encoder.c ****         }
 138:Core/Src/encoder.c ****     */
 139:Core/Src/encoder.c **** 
 140:Core/Src/encoder.c ****     default:
 141:Core/Src/encoder.c ****         break;
 142:Core/Src/encoder.c ****     }
 143:Core/Src/encoder.c **** 
 144:Core/Src/encoder.c ****     switch (vcu.state)
 351              		.loc 1 144 5 view .LVU97
 352              		.loc 1 144 16 is_stmt 0 view .LVU98
ARM GAS  /tmp/ccZ3fMgE.s 			page 10


 353 0022 624B     		ldr	r3, .L42+4
 354 0024 1B79     		ldrb	r3, [r3, #4]	@ zero_extendqisi2
 355 0026 DBB2     		uxtb	r3, r3
 356 0028 062B     		cmp	r3, #6
 357 002a 00F2B980 		bhi	.L30
 358 002e DFE803F0 		tbb	[pc, r3]
 359              	.L32:
 360 0032 63       		.byte	(.L37-.L32)/2
 361 0033 6D       		.byte	(.L36-.L32)/2
 362 0034 95       		.byte	(.L35-.L32)/2
 363 0035 AD       		.byte	(.L34-.L32)/2
 364 0036 71       		.byte	(.L33-.L32)/2
 365 0037 B7       		.byte	(.L30-.L32)/2
 366 0038 8E       		.byte	(.L31-.L32)/2
 367 0039 00       		.p2align 1
 368              	.L27:
  76:Core/Src/encoder.c ****         if (ldu.dir == FWD)
 369              		.loc 1 76 9 is_stmt 1 view .LVU99
 370 003a 0121     		movs	r1, #1
 371 003c 0420     		movs	r0, #4
 372 003e FFF7FEFF 		bl	canIOset
 373              	.LVL17:
  77:Core/Src/encoder.c ****         {
 374              		.loc 1 77 9 view .LVU100
  77:Core/Src/encoder.c ****         {
 375              		.loc 1 77 16 is_stmt 0 view .LVU101
 376 0042 5B4B     		ldr	r3, .L42+8
 377 0044 1B7A     		ldrb	r3, [r3, #8]	@ zero_extendqisi2
 378 0046 DBB2     		uxtb	r3, r3
  77:Core/Src/encoder.c ****         {
 379              		.loc 1 77 12 view .LVU102
 380 0048 FF2B     		cmp	r3, #255
 381 004a EAD1     		bne	.L20
  79:Core/Src/encoder.c ****         }
 382              		.loc 1 79 13 is_stmt 1 view .LVU103
 383 004c 0023     		movs	r3, #0
 384 004e 1A46     		mov	r2, r3
 385 0050 1946     		mov	r1, r3
 386 0052 0220     		movs	r0, #2
 387 0054 FFF7FEFF 		bl	setWidget
 388              	.LVL18:
 389 0058 E3E7     		b	.L20
 390              	.L28:
  85:Core/Src/encoder.c ****         {
 391              		.loc 1 85 9 view .LVU104
  85:Core/Src/encoder.c ****         {
 392              		.loc 1 85 16 is_stmt 0 view .LVU105
 393 005a 554B     		ldr	r3, .L42+8
 394 005c 1B88     		ldrh	r3, [r3]
 395 005e 9BB2     		uxth	r3, r3
  85:Core/Src/encoder.c ****         {
 396              		.loc 1 85 12 view .LVU106
 397 0060 B3F5FA6F 		cmp	r3, #2000
 398 0064 DDD3     		bcc	.L20
  87:Core/Src/encoder.c ****         }
 399              		.loc 1 87 13 is_stmt 1 view .LVU107
 400 0066 0023     		movs	r3, #0
ARM GAS  /tmp/ccZ3fMgE.s 			page 11


 401 0068 1A46     		mov	r2, r3
 402 006a 1946     		mov	r1, r3
 403 006c 0120     		movs	r0, #1
 404 006e FFF7FEFF 		bl	setWidget
 405              	.LVL19:
 406 0072 D6E7     		b	.L20
 407              	.L26:
  92:Core/Src/encoder.c ****         canIOset(reverse, OFF);
 408              		.loc 1 92 9 view .LVU108
 409 0074 0021     		movs	r1, #0
 410 0076 0420     		movs	r0, #4
 411 0078 FFF7FEFF 		bl	canIOset
 412              	.LVL20:
  93:Core/Src/encoder.c ****         if (ldu.dir == NTRL)
 413              		.loc 1 93 9 view .LVU109
 414 007c 0021     		movs	r1, #0
 415 007e 0320     		movs	r0, #3
 416 0080 FFF7FEFF 		bl	canIOset
 417              	.LVL21:
  94:Core/Src/encoder.c ****         {
 418              		.loc 1 94 9 view .LVU110
  94:Core/Src/encoder.c ****         {
 419              		.loc 1 94 16 is_stmt 0 view .LVU111
 420 0084 4A4B     		ldr	r3, .L42+8
 421 0086 1B7A     		ldrb	r3, [r3, #8]	@ zero_extendqisi2
 422 0088 DBB2     		uxtb	r3, r3
  94:Core/Src/encoder.c ****         {
 423              		.loc 1 94 12 view .LVU112
 424 008a 022B     		cmp	r3, #2
 425 008c C9D1     		bne	.L20
  96:Core/Src/encoder.c ****         }
 426              		.loc 1 96 13 is_stmt 1 view .LVU113
 427 008e 0023     		movs	r3, #0
 428 0090 1A46     		mov	r2, r3
 429 0092 1946     		mov	r1, r3
 430 0094 0520     		movs	r0, #5
 431 0096 FFF7FEFF 		bl	setWidget
 432              	.LVL22:
 433 009a C2E7     		b	.L20
 434              	.L25:
 102:Core/Src/encoder.c ****         if (ldu.dir == REV)
 435              		.loc 1 102 9 view .LVU114
 436 009c 0121     		movs	r1, #1
 437 009e 0320     		movs	r0, #3
 438 00a0 FFF7FEFF 		bl	canIOset
 439              	.LVL23:
 103:Core/Src/encoder.c ****         {
 440              		.loc 1 103 9 view .LVU115
 103:Core/Src/encoder.c ****         {
 441              		.loc 1 103 16 is_stmt 0 view .LVU116
 442 00a4 424B     		ldr	r3, .L42+8
 443 00a6 1B7A     		ldrb	r3, [r3, #8]	@ zero_extendqisi2
 444 00a8 DBB2     		uxtb	r3, r3
 103:Core/Src/encoder.c ****         {
 445              		.loc 1 103 12 view .LVU117
 446 00aa 032B     		cmp	r3, #3
 447 00ac B9D1     		bne	.L20
ARM GAS  /tmp/ccZ3fMgE.s 			page 12


 105:Core/Src/encoder.c ****         }
 448              		.loc 1 105 13 is_stmt 1 view .LVU118
 449 00ae 0023     		movs	r3, #0
 450 00b0 1A46     		mov	r2, r3
 451 00b2 1946     		mov	r1, r3
 452 00b4 0620     		movs	r0, #6
 453 00b6 FFF7FEFF 		bl	setWidget
 454              	.LVL24:
 455 00ba B2E7     		b	.L20
 456              	.L24:
 113:Core/Src/encoder.c ****         setWidget(BATTERY, BATT_TEMP, BMS[0].temp, x1);
 457              		.loc 1 113 9 view .LVU119
 458 00bc 3D4C     		ldr	r4, .L42+12
 459 00be 0023     		movs	r3, #0
 460 00c0 2288     		ldrh	r2, [r4]
 461 00c2 0121     		movs	r1, #1
 462 00c4 0A20     		movs	r0, #10
 463 00c6 FFF7FEFF 		bl	setWidget
 464              	.LVL25:
 114:Core/Src/encoder.c ****         //}
 465              		.loc 1 114 9 view .LVU120
 466 00ca 0023     		movs	r3, #0
 467 00cc A278     		ldrb	r2, [r4, #2]	@ zero_extendqisi2
 468 00ce 0421     		movs	r1, #4
 469 00d0 0A20     		movs	r0, #10
 470 00d2 FFF7FEFF 		bl	setWidget
 471              	.LVL26:
 116:Core/Src/encoder.c **** 
 472              		.loc 1 116 9 view .LVU121
 473 00d6 A4E7     		b	.L20
 474              	.L23:
 120:Core/Src/encoder.c ****         {
 475              		.loc 1 120 9 view .LVU122
 120:Core/Src/encoder.c ****         {
 476              		.loc 1 120 16 is_stmt 0 view .LVU123
 477 00d8 344B     		ldr	r3, .L42+4
 478 00da 1B79     		ldrb	r3, [r3, #4]	@ zero_extendqisi2
 479 00dc DBB2     		uxtb	r3, r3
 120:Core/Src/encoder.c ****         {
 480              		.loc 1 120 12 view .LVU124
 481 00de 062B     		cmp	r3, #6
 482 00e0 9FD0     		beq	.L20
 122:Core/Src/encoder.c ****         }
 483              		.loc 1 122 13 is_stmt 1 view .LVU125
 484 00e2 0023     		movs	r3, #0
 485 00e4 1A46     		mov	r2, r3
 486 00e6 1946     		mov	r1, r3
 487 00e8 0120     		movs	r0, #1
 488 00ea FFF7FEFF 		bl	setWidget
 489              	.LVL27:
 490 00ee 98E7     		b	.L20
 491              	.L21:
 129:Core/Src/encoder.c ****         break;
 492              		.loc 1 129 9 view .LVU126
 129:Core/Src/encoder.c ****         break;
 493              		.loc 1 129 22 is_stmt 0 view .LVU127
 494 00f0 2E4B     		ldr	r3, .L42+4
ARM GAS  /tmp/ccZ3fMgE.s 			page 13


 495 00f2 0122     		movs	r2, #1
 496 00f4 9A71     		strb	r2, [r3, #6]
 130:Core/Src/encoder.c ****         /*
 497              		.loc 1 130 9 is_stmt 1 view .LVU128
 498 00f6 94E7     		b	.L20
 499              	.L37:
 145:Core/Src/encoder.c ****     {
 146:Core/Src/encoder.c ****     case off:
 147:Core/Src/encoder.c ****         setBacklight(0);
 500              		.loc 1 147 9 view .LVU129
 501 00f8 0020     		movs	r0, #0
 502 00fa FFF7FEFF 		bl	setBacklight
 503              	.LVL28:
 148:Core/Src/encoder.c ****         setWidget(HOME, 0, 0, 0);
 504              		.loc 1 148 9 view .LVU130
 505 00fe 0023     		movs	r3, #0
 506 0100 1A46     		mov	r2, r3
 507 0102 1946     		mov	r1, r3
 508 0104 0120     		movs	r0, #1
 509 0106 FFF7FEFF 		bl	setWidget
 510              	.LVL29:
 149:Core/Src/encoder.c ****         break;
 511              		.loc 1 149 9 view .LVU131
 512              	.L19:
 150:Core/Src/encoder.c **** 
 151:Core/Src/encoder.c ****     case on:
 152:Core/Src/encoder.c ****         setBacklight(95);
 153:Core/Src/encoder.c ****         break;
 154:Core/Src/encoder.c **** 
 155:Core/Src/encoder.c ****     case idle:
 156:Core/Src/encoder.c **** 
 157:Core/Src/encoder.c ****         switch (te.currentScreen)
 158:Core/Src/encoder.c ****         {
 159:Core/Src/encoder.c ****         case HOME:
 160:Core/Src/encoder.c ****         case WINDOWS:
 161:Core/Src/encoder.c ****         case CHARGE_STATS:
 162:Core/Src/encoder.c ****             if (charger.proximity)
 163:Core/Src/encoder.c ****             {
 164:Core/Src/encoder.c ****                 setWidget(DRIVEAWAY, 0, 0, 0);
 165:Core/Src/encoder.c ****             }
 166:Core/Src/encoder.c ****             else
 167:Core/Src/encoder.c ****             {
 168:Core/Src/encoder.c ****                 setWidget(NTRL_REQ, 0, 0, 0);
 169:Core/Src/encoder.c ****             }
 170:Core/Src/encoder.c ****             break;
 171:Core/Src/encoder.c **** 
 172:Core/Src/encoder.c ****         default:
 173:Core/Src/encoder.c ****             break;
 174:Core/Src/encoder.c ****         }
 175:Core/Src/encoder.c **** 
 176:Core/Src/encoder.c ****         break;
 177:Core/Src/encoder.c **** 
 178:Core/Src/encoder.c ****     case launchMode:
 179:Core/Src/encoder.c ****         setWidget(LAUNCH, 0, 0, 0);
 180:Core/Src/encoder.c ****         break;
 181:Core/Src/encoder.c **** 
 182:Core/Src/encoder.c ****     case charge_keyOff:
ARM GAS  /tmp/ccZ3fMgE.s 			page 14


 183:Core/Src/encoder.c ****         setWidget(CHARGE_STATS, CS_TEMP, BMS[0].temp, x1);
 184:Core/Src/encoder.c ****         setWidget(CHARGE_STATS, CS_SOC, BMS[0].chargeState, x1);
 185:Core/Src/encoder.c ****         setWidget(CHARGE_STATS, CS_AMP, charger.current, x1);
 186:Core/Src/encoder.c ****         setBacklight(95);
 187:Core/Src/encoder.c ****         break;
 188:Core/Src/encoder.c **** 
 189:Core/Src/encoder.c ****     case charge_keyOn:
 190:Core/Src/encoder.c ****         setWidget(HOME, 0, 0, 0);
 191:Core/Src/encoder.c ****         setBacklight(95);
 192:Core/Src/encoder.c ****         break;
 193:Core/Src/encoder.c ****         
 194:Core/Src/encoder.c **** 
 195:Core/Src/encoder.c ****     default:
 196:Core/Src/encoder.c ****         setBacklight(95);
 197:Core/Src/encoder.c ****         break;
 198:Core/Src/encoder.c ****     }
 199:Core/Src/encoder.c **** }
 513              		.loc 1 199 1 is_stmt 0 view .LVU132
 514 010a 10BD     		pop	{r4, pc}
 515              	.L36:
 152:Core/Src/encoder.c ****         break;
 516              		.loc 1 152 9 is_stmt 1 view .LVU133
 517 010c 5F20     		movs	r0, #95
 518 010e FFF7FEFF 		bl	setBacklight
 519              	.LVL30:
 153:Core/Src/encoder.c **** 
 520              		.loc 1 153 9 view .LVU134
 521 0112 FAE7     		b	.L19
 522              	.L33:
 157:Core/Src/encoder.c ****         {
 523              		.loc 1 157 9 view .LVU135
 157:Core/Src/encoder.c ****         {
 524              		.loc 1 157 19 is_stmt 0 view .LVU136
 525 0114 244B     		ldr	r3, .L42
 526 0116 1B78     		ldrb	r3, [r3]	@ zero_extendqisi2
 527 0118 DBB2     		uxtb	r3, r3
 528 011a 012B     		cmp	r3, #1
 529 011c 06D0     		beq	.L39
 530 011e 5AB2     		sxtb	r2, r3
 531 0120 002A     		cmp	r2, #0
 532 0122 F2D0     		beq	.L19
 533 0124 083B     		subs	r3, r3, #8
 534 0126 DBB2     		uxtb	r3, r3
 535 0128 012B     		cmp	r3, #1
 536 012a EED8     		bhi	.L19
 537              	.L39:
 162:Core/Src/encoder.c ****             {
 538              		.loc 1 162 13 is_stmt 1 view .LVU137
 162:Core/Src/encoder.c ****             {
 539              		.loc 1 162 24 is_stmt 0 view .LVU138
 540 012c 224B     		ldr	r3, .L42+16
 541 012e 9B78     		ldrb	r3, [r3, #2]	@ zero_extendqisi2
 162:Core/Src/encoder.c ****             {
 542              		.loc 1 162 16 view .LVU139
 543 0130 33B1     		cbz	r3, .L40
 164:Core/Src/encoder.c ****             }
 544              		.loc 1 164 17 is_stmt 1 view .LVU140
ARM GAS  /tmp/ccZ3fMgE.s 			page 15


 545 0132 0023     		movs	r3, #0
 546 0134 1A46     		mov	r2, r3
 547 0136 1946     		mov	r1, r3
 548 0138 1020     		movs	r0, #16
 549 013a FFF7FEFF 		bl	setWidget
 550              	.LVL31:
 551 013e E4E7     		b	.L19
 552              	.L40:
 168:Core/Src/encoder.c ****             }
 553              		.loc 1 168 17 view .LVU141
 554 0140 0023     		movs	r3, #0
 555 0142 1A46     		mov	r2, r3
 556 0144 1946     		mov	r1, r3
 557 0146 0420     		movs	r0, #4
 558 0148 FFF7FEFF 		bl	setWidget
 559              	.LVL32:
 560 014c DDE7     		b	.L19
 561              	.L31:
 179:Core/Src/encoder.c ****         break;
 562              		.loc 1 179 9 view .LVU142
 563 014e 0023     		movs	r3, #0
 564 0150 1A46     		mov	r2, r3
 565 0152 1946     		mov	r1, r3
 566 0154 0B20     		movs	r0, #11
 567 0156 FFF7FEFF 		bl	setWidget
 568              	.LVL33:
 180:Core/Src/encoder.c **** 
 569              		.loc 1 180 9 view .LVU143
 570 015a D6E7     		b	.L19
 571              	.L35:
 183:Core/Src/encoder.c ****         setWidget(CHARGE_STATS, CS_SOC, BMS[0].chargeState, x1);
 572              		.loc 1 183 9 view .LVU144
 183:Core/Src/encoder.c ****         setWidget(CHARGE_STATS, CS_SOC, BMS[0].chargeState, x1);
 573              		.loc 1 183 48 is_stmt 0 view .LVU145
 574 015c 154C     		ldr	r4, .L42+12
 183:Core/Src/encoder.c ****         setWidget(CHARGE_STATS, CS_SOC, BMS[0].chargeState, x1);
 575              		.loc 1 183 9 view .LVU146
 576 015e 0023     		movs	r3, #0
 577 0160 A278     		ldrb	r2, [r4, #2]	@ zero_extendqisi2
 578 0162 0121     		movs	r1, #1
 579 0164 0820     		movs	r0, #8
 580 0166 FFF7FEFF 		bl	setWidget
 581              	.LVL34:
 184:Core/Src/encoder.c ****         setWidget(CHARGE_STATS, CS_AMP, charger.current, x1);
 582              		.loc 1 184 9 is_stmt 1 view .LVU147
 583 016a 0023     		movs	r3, #0
 584 016c 227A     		ldrb	r2, [r4, #8]	@ zero_extendqisi2
 585 016e 0421     		movs	r1, #4
 586 0170 0820     		movs	r0, #8
 587 0172 FFF7FEFF 		bl	setWidget
 588              	.LVL35:
 185:Core/Src/encoder.c ****         setBacklight(95);
 589              		.loc 1 185 9 view .LVU148
 590 0176 0023     		movs	r3, #0
 591 0178 0F4A     		ldr	r2, .L42+16
 592 017a 1278     		ldrb	r2, [r2]	@ zero_extendqisi2
 593 017c 0821     		movs	r1, #8
ARM GAS  /tmp/ccZ3fMgE.s 			page 16


 594 017e 0846     		mov	r0, r1
 595 0180 FFF7FEFF 		bl	setWidget
 596              	.LVL36:
 186:Core/Src/encoder.c ****         break;
 597              		.loc 1 186 9 view .LVU149
 598 0184 5F20     		movs	r0, #95
 599 0186 FFF7FEFF 		bl	setBacklight
 600              	.LVL37:
 187:Core/Src/encoder.c **** 
 601              		.loc 1 187 9 view .LVU150
 602 018a BEE7     		b	.L19
 603              	.L34:
 190:Core/Src/encoder.c ****         setBacklight(95);
 604              		.loc 1 190 9 view .LVU151
 605 018c 0023     		movs	r3, #0
 606 018e 1A46     		mov	r2, r3
 607 0190 1946     		mov	r1, r3
 608 0192 0120     		movs	r0, #1
 609 0194 FFF7FEFF 		bl	setWidget
 610              	.LVL38:
 191:Core/Src/encoder.c ****         break;
 611              		.loc 1 191 9 view .LVU152
 612 0198 5F20     		movs	r0, #95
 613 019a FFF7FEFF 		bl	setBacklight
 614              	.LVL39:
 192:Core/Src/encoder.c ****         
 615              		.loc 1 192 9 view .LVU153
 616 019e B4E7     		b	.L19
 617              	.L30:
 196:Core/Src/encoder.c ****         break;
 618              		.loc 1 196 9 view .LVU154
 619 01a0 5F20     		movs	r0, #95
 620 01a2 FFF7FEFF 		bl	setBacklight
 621              	.LVL40:
 197:Core/Src/encoder.c ****     }
 622              		.loc 1 197 9 view .LVU155
 623              		.loc 1 199 1 is_stmt 0 view .LVU156
 624 01a6 B0E7     		b	.L19
 625              	.L43:
 626              		.align	2
 627              	.L42:
 628 01a8 00000000 		.word	te
 629 01ac 00000000 		.word	vcu
 630 01b0 00000000 		.word	ldu
 631 01b4 00000000 		.word	BMS
 632 01b8 00000000 		.word	charger
 633              		.cfi_endproc
 634              	.LFE72:
 636              		.comm	te,12,4
 637              		.comm	canDebug,4,4
 638              		.comm	txCycle2,4,4
 639              		.comm	txCycle,4,4
 640              		.comm	canTx2,8,4
 641              		.comm	canTx,8,4
 642              		.comm	canMailbox2,4,4
 643              		.comm	canMailbox,4,4
 644              		.comm	canRx2,8,4
ARM GAS  /tmp/ccZ3fMgE.s 			page 17


 645              		.comm	canRx,8,4
 646              		.comm	txMsgExt2,24,4
 647              		.comm	txMsg2,24,4
 648              		.comm	rxMsg2,28,4
 649              		.comm	txMsgExt,24,4
 650              		.comm	txMsg,24,4
 651              		.comm	rxMsg,28,4
 652              		.comm	sf5,40,4
 653              		.comm	sf4,40,4
 654              		.comm	sf3,40,4
 655              		.comm	sf2,40,4
 656              		.comm	sf,40,4
 657              		.comm	hcan2,40,4
 658              		.comm	hcan1,40,4
 659              		.comm	LIDAR,8,4
 660              		.comm	taskTime,32,4
 661              		.comm	BMS,20,4
 662              		.comm	charger,3,4
 663              		.comm	vcu,7,4
 664              		.comm	iboost,2,4
 665              		.comm	ldu,18,4
 666              		.comm	tempdata,4,4
 667              		.comm	ADC_data,12,4
 668              		.comm	tenderActive,1,1
 669              		.comm	time_now,4,4
 670              		.comm	period,4,4
 671              		.comm	DCDC,4,4
 672              		.text
 673              	.Letext0:
 674              		.file 2 "/usr/lib/gcc/arm-none-eabi/9.2.1/include/stdint.h"
 675              		.file 3 "Drivers/CMSIS/Include/core_cm3.h"
 676              		.file 4 "Drivers/CMSIS/Device/ST/STM32F1xx/Include/system_stm32f1xx.h"
 677              		.file 5 "Drivers/CMSIS/Device/ST/STM32F1xx/Include/stm32f105xc.h"
 678              		.file 6 "Drivers/CMSIS/Device/ST/STM32F1xx/Include/stm32f1xx.h"
 679              		.file 7 "Drivers/STM32F1xx_HAL_Driver/Inc/stm32f1xx_hal_can.h"
 680              		.file 8 "Drivers/STM32F1xx_HAL_Driver/Inc/stm32f1xx_hal.h"
 681              		.file 9 "/usr/lib/gcc/arm-none-eabi/9.2.1/include/stddef.h"
 682              		.file 10 "/usr/include/newlib/sys/_types.h"
 683              		.file 11 "/usr/include/newlib/sys/reent.h"
 684              		.file 12 "/usr/include/newlib/sys/lock.h"
 685              		.file 13 "Core/Inc/dcdc.h"
 686              		.file 14 "Core/Inc/vcu.h"
 687              		.file 15 "Core/Inc/lidar.h"
 688              		.file 16 "Core/Inc/can_setup.h"
 689              		.file 17 "Core/Inc/encoder.h"
ARM GAS  /tmp/ccZ3fMgE.s 			page 18

