ARM GAS  /tmp/ccT695aJ.s 			page 1


   1              		.cpu cortex-m3
   2              		.eabi_attribute 20, 1
   3              		.eabi_attribute 21, 1
   4              		.eabi_attribute 23, 3
   5              		.eabi_attribute 24, 1
   6              		.eabi_attribute 25, 1
   7              		.eabi_attribute 26, 1
   8              		.eabi_attribute 30, 1
   9              		.eabi_attribute 34, 1
  10              		.eabi_attribute 18, 4
  11              		.file	"gauges.c"
  12              		.text
  13              	.Ltext0:
  14              		.cfi_sections	.debug_frame
  15              		.section	.text.gaugeInit,"ax",%progbits
  16              		.align	1
  17              		.global	gaugeInit
  18              		.syntax unified
  19              		.thumb
  20              		.thumb_func
  21              		.fpu softvfp
  23              	gaugeInit:
  24              	.LFB66:
  25              		.file 1 "Core/Src/gauges.c"
   1:Core/Src/gauges.c **** #include "gauges.h"
   2:Core/Src/gauges.c **** 
   3:Core/Src/gauges.c **** void gaugeInit(void)
   4:Core/Src/gauges.c **** {
  26              		.loc 1 4 0
  27              		.cfi_startproc
  28              		@ args = 0, pretend = 0, frame = 0
  29              		@ frame_needed = 0, uses_anonymous_args = 0
  30              		@ link register save eliminated.
  31              	.LVL0:
  32              	.LBB2:
   5:Core/Src/gauges.c **** 
   6:Core/Src/gauges.c ****     for (size_t i = 0; i < 100; i++)
  33              		.loc 1 6 0
  34 0000 0023     		movs	r3, #0
  35 0002 07E0     		b	.L2
  36              	.LVL1:
  37              	.L3:
   7:Core/Src/gauges.c ****     {
   8:Core/Src/gauges.c ****         tempPWM[i] = 0;
  38              		.loc 1 8 0 discriminator 3
  39 0004 0022     		movs	r2, #0
  40 0006 0549     		ldr	r1, .L4
  41 0008 41F82320 		str	r2, [r1, r3, lsl #2]
   9:Core/Src/gauges.c ****         socPWM[i] = 0;
  42              		.loc 1 9 0 discriminator 3
  43 000c 0449     		ldr	r1, .L4+4
  44 000e 41F82320 		str	r2, [r1, r3, lsl #2]
   6:Core/Src/gauges.c ****     {
  45              		.loc 1 6 0 discriminator 3
  46 0012 0133     		adds	r3, r3, #1
  47              	.LVL2:
  48              	.L2:
ARM GAS  /tmp/ccT695aJ.s 			page 2


   6:Core/Src/gauges.c ****     {
  49              		.loc 1 6 0 is_stmt 0 discriminator 1
  50 0014 632B     		cmp	r3, #99
  51 0016 F5D9     		bls	.L3
  52              	.LBE2:
  10:Core/Src/gauges.c ****     }
  11:Core/Src/gauges.c **** }
  53              		.loc 1 11 0 is_stmt 1
  54 0018 7047     		bx	lr
  55              	.L5:
  56 001a 00BF     		.align	2
  57              	.L4:
  58 001c 00000000 		.word	tempPWM
  59 0020 00000000 		.word	socPWM
  60              		.cfi_endproc
  61              	.LFE66:
  63              		.section	.text.updateTach,"ax",%progbits
  64              		.align	1
  65              		.global	updateTach
  66              		.syntax unified
  67              		.thumb
  68              		.thumb_func
  69              		.fpu softvfp
  71              	updateTach:
  72              	.LFB67:
  12:Core/Src/gauges.c **** 
  13:Core/Src/gauges.c **** void updateTach(volatile uint16_t amps)
  14:Core/Src/gauges.c **** {
  73              		.loc 1 14 0
  74              		.cfi_startproc
  75              		@ args = 0, pretend = 0, frame = 8
  76              		@ frame_needed = 0, uses_anonymous_args = 0
  77              		@ link register save eliminated.
  78              	.LVL3:
  79 0000 82B0     		sub	sp, sp, #8
  80              		.cfi_def_cfa_offset 8
  81 0002 ADF80600 		strh	r0, [sp, #6]	@ movhi
  82              	.LVL4:
  15:Core/Src/gauges.c ****     int freq = 0;
  16:Core/Src/gauges.c ****     if (amps > 50)
  83              		.loc 1 16 0
  84 0006 BDF80630 		ldrh	r3, [sp, #6]
  85 000a 9BB2     		uxth	r3, r3
  86 000c 322B     		cmp	r3, #50
  87 000e 1BD9     		bls	.L8
  17:Core/Src/gauges.c ****     {
  18:Core/Src/gauges.c ****         freq = (amps * 100) / 315;
  88              		.loc 1 18 0
  89 0010 BDF80630 		ldrh	r3, [sp, #6]
  90 0014 9AB2     		uxth	r2, r3
  91 0016 6423     		movs	r3, #100
  92 0018 03FB02F3 		mul	r3, r3, r2
  93 001c 0B4A     		ldr	r2, .L10
  94 001e 82FB0312 		smull	r1, r2, r2, r3
  95 0022 1A44     		add	r2, r2, r3
  96 0024 DB17     		asrs	r3, r3, #31
  97 0026 C3EB2223 		rsb	r3, r3, r2, asr #8
ARM GAS  /tmp/ccT695aJ.s 			page 3


  98              	.LVL5:
  99              	.L7:
  19:Core/Src/gauges.c ****     }
  20:Core/Src/gauges.c **** 
  21:Core/Src/gauges.c ****     TIM1->CNT = 0;
 100              		.loc 1 21 0
 101 002a 094A     		ldr	r2, .L10+4
 102 002c 0021     		movs	r1, #0
 103 002e 5162     		str	r1, [r2, #36]
  22:Core/Src/gauges.c ****     TIM1->ARR = CPU / freq / TIM1->PSC; 
 104              		.loc 1 22 0
 105 0030 0849     		ldr	r1, .L10+8
 106 0032 91FBF3F3 		sdiv	r3, r1, r3
 107              	.LVL6:
 108 0036 916A     		ldr	r1, [r2, #40]
 109 0038 B3FBF1F3 		udiv	r3, r3, r1
 110 003c D362     		str	r3, [r2, #44]
  23:Core/Src/gauges.c ****     TIM1->CCR1 = TIM1->ARR / 2;         //50% duty variable frequency
 111              		.loc 1 23 0
 112 003e D36A     		ldr	r3, [r2, #44]
 113 0040 5B08     		lsrs	r3, r3, #1
 114 0042 5363     		str	r3, [r2, #52]
  24:Core/Src/gauges.c **** }
 115              		.loc 1 24 0
 116 0044 02B0     		add	sp, sp, #8
 117              		.cfi_remember_state
 118              		.cfi_def_cfa_offset 0
 119              		@ sp needed
 120 0046 7047     		bx	lr
 121              	.LVL7:
 122              	.L8:
 123              		.cfi_restore_state
  15:Core/Src/gauges.c ****     if (amps > 50)
 124              		.loc 1 15 0
 125 0048 0023     		movs	r3, #0
 126 004a EEE7     		b	.L7
 127              	.L11:
 128              		.align	2
 129              	.L10:
 130 004c D1000DD0 		.word	-804454191
 131 0050 002C0140 		.word	1073818624
 132 0054 00A24A04 		.word	72000000
 133              		.cfi_endproc
 134              	.LFE67:
 136              		.section	.text.updateSpeed,"ax",%progbits
 137              		.align	1
 138              		.global	updateSpeed
 139              		.syntax unified
 140              		.thumb
 141              		.thumb_func
 142              		.fpu softvfp
 144              	updateSpeed:
 145              	.LFB68:
  25:Core/Src/gauges.c **** 
  26:Core/Src/gauges.c **** void updateSpeed(volatile uint16_t motorRPM)
  27:Core/Src/gauges.c **** {
 146              		.loc 1 27 0
ARM GAS  /tmp/ccT695aJ.s 			page 4


 147              		.cfi_startproc
 148              		@ args = 0, pretend = 0, frame = 8
 149              		@ frame_needed = 0, uses_anonymous_args = 0
 150              		@ link register save eliminated.
 151              	.LVL8:
 152 0000 82B0     		sub	sp, sp, #8
 153              		.cfi_def_cfa_offset 8
 154 0002 ADF80600 		strh	r0, [sp, #6]	@ movhi
 155              	.LVL9:
  28:Core/Src/gauges.c ****     int freq = 0;
  29:Core/Src/gauges.c ****     if (motorRPM > 900)
 156              		.loc 1 29 0
 157 0006 BDF80630 		ldrh	r3, [sp, #6]
 158 000a 9BB2     		uxth	r3, r3
 159 000c B3F5617F 		cmp	r3, #900
 160 0010 15D9     		bls	.L14
  30:Core/Src/gauges.c ****     {
  31:Core/Src/gauges.c ****         freq = motorRPM / 71;
 161              		.loc 1 31 0
 162 0012 BDF80620 		ldrh	r2, [sp, #6]
 163 0016 92B2     		uxth	r2, r2
 164 0018 0A49     		ldr	r1, .L16
 165 001a A1FB0232 		umull	r3, r2, r1, r2
 166 001e 9109     		lsrs	r1, r2, #6
 167              	.LVL10:
 168              	.L13:
  32:Core/Src/gauges.c ****     }
  33:Core/Src/gauges.c **** 
  34:Core/Src/gauges.c ****     TIM3->CNT = 0;
 169              		.loc 1 34 0
 170 0020 094B     		ldr	r3, .L16+4
 171 0022 0022     		movs	r2, #0
 172 0024 5A62     		str	r2, [r3, #36]
  35:Core/Src/gauges.c ****     TIM3->ARR = CPU / freq / TIM3->PSC; 
 173              		.loc 1 35 0
 174 0026 094A     		ldr	r2, .L16+8
 175 0028 92FBF1F2 		sdiv	r2, r2, r1
 176 002c 996A     		ldr	r1, [r3, #40]
 177              	.LVL11:
 178 002e B2FBF1F2 		udiv	r2, r2, r1
 179 0032 DA62     		str	r2, [r3, #44]
  36:Core/Src/gauges.c ****     TIM3->CCR3 = TIM3->ARR / 2;           //50% duty variable frequency
 180              		.loc 1 36 0
 181 0034 DA6A     		ldr	r2, [r3, #44]
 182 0036 5208     		lsrs	r2, r2, #1
 183 0038 DA63     		str	r2, [r3, #60]
  37:Core/Src/gauges.c **** }
 184              		.loc 1 37 0
 185 003a 02B0     		add	sp, sp, #8
 186              		.cfi_remember_state
 187              		.cfi_def_cfa_offset 0
 188              		@ sp needed
 189 003c 7047     		bx	lr
 190              	.LVL12:
 191              	.L14:
 192              		.cfi_restore_state
  28:Core/Src/gauges.c ****     if (motorRPM > 900)
ARM GAS  /tmp/ccT695aJ.s 			page 5


 193              		.loc 1 28 0
 194 003e 0021     		movs	r1, #0
 195 0040 EEE7     		b	.L13
 196              	.L17:
 197 0042 00BF     		.align	2
 198              	.L16:
 199 0044 49B4C2E6 		.word	-423447479
 200 0048 00040040 		.word	1073742848
 201 004c 00A24A04 		.word	72000000
 202              		.cfi_endproc
 203              	.LFE68:
 205              		.section	.text.updateTemp,"ax",%progbits
 206              		.align	1
 207              		.global	updateTemp
 208              		.syntax unified
 209              		.thumb
 210              		.thumb_func
 211              		.fpu softvfp
 213              	updateTemp:
 214              	.LFB69:
  38:Core/Src/gauges.c **** 
  39:Core/Src/gauges.c **** void updateTemp(volatile uint16_t temp)
  40:Core/Src/gauges.c **** {
 215              		.loc 1 40 0
 216              		.cfi_startproc
 217              		@ args = 0, pretend = 0, frame = 8
 218              		@ frame_needed = 0, uses_anonymous_args = 0
 219              		@ link register save eliminated.
 220              	.LVL13:
 221 0000 82B0     		sub	sp, sp, #8
 222              		.cfi_def_cfa_offset 8
 223 0002 ADF80600 		strh	r0, [sp, #6]	@ movhi
  41:Core/Src/gauges.c **** 
  42:Core/Src/gauges.c ****     uint16_t highPulse = MAP(temp, 0, 90, 19, 65); //gauge range calibration  
 224              		.loc 1 42 0
 225 0006 BDF80630 		ldrh	r3, [sp, #6]
 226 000a 9AB2     		uxth	r2, r3
 227 000c 2E23     		movs	r3, #46
 228 000e 03FB02F3 		mul	r3, r3, r2
 229 0012 0F4A     		ldr	r2, .L24
 230 0014 82FB0312 		smull	r1, r2, r2, r3
 231 0018 1A44     		add	r2, r2, r3
 232 001a D917     		asrs	r1, r3, #31
 233 001c C1EBA211 		rsb	r1, r1, r2, asr #6
 234 0020 89B2     		uxth	r1, r1
 235 0022 1331     		adds	r1, r1, #19
 236 0024 89B2     		uxth	r1, r1
 237              	.LVL14:
 238              	.LBB3:
  43:Core/Src/gauges.c **** 
  44:Core/Src/gauges.c ****     for (size_t i = 0; i < highPulse; i++)
 239              		.loc 1 44 0
 240 0026 0022     		movs	r2, #0
 241 0028 04E0     		b	.L19
 242              	.LVL15:
 243              	.L20:
  45:Core/Src/gauges.c ****     {
ARM GAS  /tmp/ccT695aJ.s 			page 6


  46:Core/Src/gauges.c ****         tempPWM[i] = (uint32_t)TEMP_Pin;
 244              		.loc 1 46 0 discriminator 3
 245 002a 8020     		movs	r0, #128
 246 002c 094B     		ldr	r3, .L24+4
 247 002e 43F82200 		str	r0, [r3, r2, lsl #2]
  44:Core/Src/gauges.c ****     {
 248              		.loc 1 44 0 discriminator 3
 249 0032 0132     		adds	r2, r2, #1
 250              	.LVL16:
 251              	.L19:
  44:Core/Src/gauges.c ****     {
 252              		.loc 1 44 0 is_stmt 0 discriminator 1
 253 0034 0B46     		mov	r3, r1
 254 0036 8A42     		cmp	r2, r1
 255 0038 F7D3     		bcc	.L20
 256 003a 05E0     		b	.L21
 257              	.LVL17:
 258              	.L22:
 259              	.LBE3:
 260              	.LBB4:
  47:Core/Src/gauges.c ****     }
  48:Core/Src/gauges.c **** 
  49:Core/Src/gauges.c ****     for (size_t i = highPulse; i < 100; i++)
  50:Core/Src/gauges.c ****     {
  51:Core/Src/gauges.c ****         tempPWM[i] = (uint32_t)TEMP_Pin << 16U;
 261              		.loc 1 51 0 is_stmt 1 discriminator 3
 262 003c 4FF40001 		mov	r1, #8388608
 263 0040 044A     		ldr	r2, .L24+4
 264 0042 42F82310 		str	r1, [r2, r3, lsl #2]
  49:Core/Src/gauges.c ****     {
 265              		.loc 1 49 0 discriminator 3
 266 0046 0133     		adds	r3, r3, #1
 267              	.LVL18:
 268              	.L21:
  49:Core/Src/gauges.c ****     {
 269              		.loc 1 49 0 is_stmt 0 discriminator 1
 270 0048 632B     		cmp	r3, #99
 271 004a F7D9     		bls	.L22
 272              	.LBE4:
  52:Core/Src/gauges.c ****     }
  53:Core/Src/gauges.c **** }
 273              		.loc 1 53 0 is_stmt 1
 274 004c 02B0     		add	sp, sp, #8
 275              		.cfi_def_cfa_offset 0
 276              	.LVL19:
 277              		@ sp needed
 278 004e 7047     		bx	lr
 279              	.L25:
 280              		.align	2
 281              	.L24:
 282 0050 B7600BB6 		.word	-1240768329
 283 0054 00000000 		.word	tempPWM
 284              		.cfi_endproc
 285              	.LFE69:
 287              		.section	.text.updateSOC,"ax",%progbits
 288              		.align	1
 289              		.global	updateSOC
ARM GAS  /tmp/ccT695aJ.s 			page 7


 290              		.syntax unified
 291              		.thumb
 292              		.thumb_func
 293              		.fpu softvfp
 295              	updateSOC:
 296              	.LFB70:
  54:Core/Src/gauges.c **** 
  55:Core/Src/gauges.c **** void updateSOC(volatile uint16_t soc)
  56:Core/Src/gauges.c **** {
 297              		.loc 1 56 0
 298              		.cfi_startproc
 299              		@ args = 0, pretend = 0, frame = 8
 300              		@ frame_needed = 0, uses_anonymous_args = 0
 301              		@ link register save eliminated.
 302              	.LVL20:
 303 0000 82B0     		sub	sp, sp, #8
 304              		.cfi_def_cfa_offset 8
 305 0002 ADF80600 		strh	r0, [sp, #6]	@ movhi
  57:Core/Src/gauges.c ****     uint16_t highPulse = MAP(soc, 1, 100, 400, 880); //gauge range calibration
 306              		.loc 1 57 0
 307 0006 BDF80620 		ldrh	r2, [sp, #6]
 308 000a 92B2     		uxth	r2, r2
 309 000c 013A     		subs	r2, r2, #1
 310 000e C2EB0212 		rsb	r2, r2, r2, lsl #4
 311 0012 5301     		lsls	r3, r2, #5
 312 0014 104A     		ldr	r2, .L32
 313 0016 82FB0312 		smull	r1, r2, r2, r3
 314 001a 1A44     		add	r2, r2, r3
 315 001c D917     		asrs	r1, r3, #31
 316 001e C1EBA211 		rsb	r1, r1, r2, asr #6
 317 0022 89B2     		uxth	r1, r1
 318 0024 01F5C871 		add	r1, r1, #400
 319 0028 89B2     		uxth	r1, r1
 320              	.LVL21:
 321              	.LBB5:
  58:Core/Src/gauges.c **** 
  59:Core/Src/gauges.c ****     for (size_t i = 0; i < highPulse; i++)
 322              		.loc 1 59 0
 323 002a 0022     		movs	r2, #0
 324 002c 05E0     		b	.L27
 325              	.LVL22:
 326              	.L28:
  60:Core/Src/gauges.c ****     {
  61:Core/Src/gauges.c ****         socPWM[i] = (uint32_t)SOC_Pin;
 327              		.loc 1 61 0 discriminator 3
 328 002e 4FF40070 		mov	r0, #512
 329 0032 0A4B     		ldr	r3, .L32+4
 330 0034 43F82200 		str	r0, [r3, r2, lsl #2]
  59:Core/Src/gauges.c ****     {
 331              		.loc 1 59 0 discriminator 3
 332 0038 0132     		adds	r2, r2, #1
 333              	.LVL23:
 334              	.L27:
  59:Core/Src/gauges.c ****     {
 335              		.loc 1 59 0 is_stmt 0 discriminator 1
 336 003a 0B46     		mov	r3, r1
 337 003c 8A42     		cmp	r2, r1
ARM GAS  /tmp/ccT695aJ.s 			page 8


 338 003e F6D3     		bcc	.L28
 339 0040 05E0     		b	.L29
 340              	.LVL24:
 341              	.L30:
 342              	.LBE5:
 343              	.LBB6:
  62:Core/Src/gauges.c ****     }
  63:Core/Src/gauges.c **** 
  64:Core/Src/gauges.c ****     for (size_t i = highPulse; i < 1000; i++)
  65:Core/Src/gauges.c ****     {
  66:Core/Src/gauges.c ****         socPWM[i] = (uint32_t)SOC_Pin << 16U;
 344              		.loc 1 66 0 is_stmt 1 discriminator 3
 345 0042 4FF00071 		mov	r1, #33554432
 346 0046 054A     		ldr	r2, .L32+4
 347 0048 42F82310 		str	r1, [r2, r3, lsl #2]
  64:Core/Src/gauges.c ****     {
 348              		.loc 1 64 0 discriminator 3
 349 004c 0133     		adds	r3, r3, #1
 350              	.LVL25:
 351              	.L29:
  64:Core/Src/gauges.c ****     {
 352              		.loc 1 64 0 is_stmt 0 discriminator 1
 353 004e B3F57A7F 		cmp	r3, #1000
 354 0052 F6D3     		bcc	.L30
 355              	.LBE6:
  67:Core/Src/gauges.c ****     }
  68:Core/Src/gauges.c **** }...
 356              		.loc 1 68 0 is_stmt 1
 357 0054 02B0     		add	sp, sp, #8
 358              		.cfi_def_cfa_offset 0
 359              	.LVL26:
 360              		@ sp needed
 361 0056 7047     		bx	lr
 362              	.L33:
 363              		.align	2
 364              	.L32:
 365 0058 03B57EA5 		.word	-1518422781
 366 005c 00000000 		.word	socPWM
 367              		.cfi_endproc
 368              	.LFE70:
 370              		.comm	socPWM,4000,4
 371              		.comm	tempPWM,400,4
 372              		.text
 373              	.Letext0:
 374              		.file 2 "/usr/include/newlib/machine/_default_types.h"
 375              		.file 3 "/usr/include/newlib/sys/_stdint.h"
 376              		.file 4 "Drivers/CMSIS/Include/core_cm3.h"
 377              		.file 5 "Drivers/CMSIS/Device/ST/STM32F1xx/Include/system_stm32f1xx.h"
 378              		.file 6 "Drivers/CMSIS/Device/ST/STM32F1xx/Include/stm32f105xc.h"
 379              		.file 7 "/usr/lib/gcc/arm-none-eabi/6.3.1/include/stddef.h"
 380              		.file 8 "Drivers/STM32F1xx_HAL_Driver/Inc/stm32f1xx_hal.h"
 381              		.file 9 "/usr/include/newlib/sys/lock.h"
 382              		.file 10 "/usr/include/newlib/sys/_types.h"
 383              		.file 11 "/usr/include/newlib/sys/reent.h"
 384              		.file 12 "Core/Inc/gauges.h"
ARM GAS  /tmp/ccT695aJ.s 			page 9

