ARM GAS  /tmp/ccFYW4Uk.s 			page 1


   1              		.cpu cortex-m3
   2              		.eabi_attribute 20, 1
   3              		.eabi_attribute 21, 1
   4              		.eabi_attribute 23, 3
   5              		.eabi_attribute 24, 1
   6              		.eabi_attribute 25, 1
   7              		.eabi_attribute 26, 1
   8              		.eabi_attribute 30, 1
   9              		.eabi_attribute 34, 1
  10              		.eabi_attribute 18, 4
  11              		.file	"stm32f1xx_hal_dma.c"
  12              		.text
  13              	.Ltext0:
  14              		.cfi_sections	.debug_frame
  15              		.section	.text.DMA_SetConfig,"ax",%progbits
  16              		.align	1
  17              		.syntax unified
  18              		.thumb
  19              		.thumb_func
  20              		.fpu softvfp
  22              	DMA_SetConfig:
  23              	.LFB77:
  24              		.file 1 "Drivers/STM32F1xx_HAL_Driver/Src/stm32f1xx_hal_dma.c"
   1:Drivers/STM32F1xx_HAL_Driver/Src/stm32f1xx_hal_dma.c **** /**
   2:Drivers/STM32F1xx_HAL_Driver/Src/stm32f1xx_hal_dma.c ****   ******************************************************************************
   3:Drivers/STM32F1xx_HAL_Driver/Src/stm32f1xx_hal_dma.c ****   * @file    stm32f1xx_hal_dma.c
   4:Drivers/STM32F1xx_HAL_Driver/Src/stm32f1xx_hal_dma.c ****   * @author  MCD Application Team
   5:Drivers/STM32F1xx_HAL_Driver/Src/stm32f1xx_hal_dma.c ****   * @brief   DMA HAL module driver.
   6:Drivers/STM32F1xx_HAL_Driver/Src/stm32f1xx_hal_dma.c ****   *         This file provides firmware functions to manage the following
   7:Drivers/STM32F1xx_HAL_Driver/Src/stm32f1xx_hal_dma.c ****   *         functionalities of the Direct Memory Access (DMA) peripheral:
   8:Drivers/STM32F1xx_HAL_Driver/Src/stm32f1xx_hal_dma.c ****   *           + Initialization and de-initialization functions
   9:Drivers/STM32F1xx_HAL_Driver/Src/stm32f1xx_hal_dma.c ****   *           + IO operation functions
  10:Drivers/STM32F1xx_HAL_Driver/Src/stm32f1xx_hal_dma.c ****   *           + Peripheral State and errors functions
  11:Drivers/STM32F1xx_HAL_Driver/Src/stm32f1xx_hal_dma.c ****   @verbatim
  12:Drivers/STM32F1xx_HAL_Driver/Src/stm32f1xx_hal_dma.c ****   ==============================================================================
  13:Drivers/STM32F1xx_HAL_Driver/Src/stm32f1xx_hal_dma.c ****                         ##### How to use this driver #####
  14:Drivers/STM32F1xx_HAL_Driver/Src/stm32f1xx_hal_dma.c ****   ==============================================================================
  15:Drivers/STM32F1xx_HAL_Driver/Src/stm32f1xx_hal_dma.c ****   [..]
  16:Drivers/STM32F1xx_HAL_Driver/Src/stm32f1xx_hal_dma.c ****    (#) Enable and configure the peripheral to be connected to the DMA Channel
  17:Drivers/STM32F1xx_HAL_Driver/Src/stm32f1xx_hal_dma.c ****        (except for internal SRAM / FLASH memories: no initialization is 
  18:Drivers/STM32F1xx_HAL_Driver/Src/stm32f1xx_hal_dma.c ****        necessary). Please refer to the Reference manual for connection between peripherals
  19:Drivers/STM32F1xx_HAL_Driver/Src/stm32f1xx_hal_dma.c ****        and DMA requests.
  20:Drivers/STM32F1xx_HAL_Driver/Src/stm32f1xx_hal_dma.c **** 
  21:Drivers/STM32F1xx_HAL_Driver/Src/stm32f1xx_hal_dma.c ****    (#) For a given Channel, program the required configuration through the following parameters:
  22:Drivers/STM32F1xx_HAL_Driver/Src/stm32f1xx_hal_dma.c ****        Channel request, Transfer Direction, Source and Destination data formats,
  23:Drivers/STM32F1xx_HAL_Driver/Src/stm32f1xx_hal_dma.c ****        Circular or Normal mode, Channel Priority level, Source and Destination Increment mode
  24:Drivers/STM32F1xx_HAL_Driver/Src/stm32f1xx_hal_dma.c ****        using HAL_DMA_Init() function.
  25:Drivers/STM32F1xx_HAL_Driver/Src/stm32f1xx_hal_dma.c **** 
  26:Drivers/STM32F1xx_HAL_Driver/Src/stm32f1xx_hal_dma.c ****    (#) Use HAL_DMA_GetState() function to return the DMA state and HAL_DMA_GetError() in case of er
  27:Drivers/STM32F1xx_HAL_Driver/Src/stm32f1xx_hal_dma.c ****        detection.
  28:Drivers/STM32F1xx_HAL_Driver/Src/stm32f1xx_hal_dma.c ****                     
  29:Drivers/STM32F1xx_HAL_Driver/Src/stm32f1xx_hal_dma.c ****    (#) Use HAL_DMA_Abort() function to abort the current transfer
  30:Drivers/STM32F1xx_HAL_Driver/Src/stm32f1xx_hal_dma.c ****                    
  31:Drivers/STM32F1xx_HAL_Driver/Src/stm32f1xx_hal_dma.c ****      -@-   In Memory-to-Memory transfer mode, Circular mode is not allowed.
  32:Drivers/STM32F1xx_HAL_Driver/Src/stm32f1xx_hal_dma.c ****      *** Polling mode IO operation ***
  33:Drivers/STM32F1xx_HAL_Driver/Src/stm32f1xx_hal_dma.c ****      =================================
  34:Drivers/STM32F1xx_HAL_Driver/Src/stm32f1xx_hal_dma.c ****     [..]
ARM GAS  /tmp/ccFYW4Uk.s 			page 2


  35:Drivers/STM32F1xx_HAL_Driver/Src/stm32f1xx_hal_dma.c ****           (+) Use HAL_DMA_Start() to start DMA transfer after the configuration of Source
  36:Drivers/STM32F1xx_HAL_Driver/Src/stm32f1xx_hal_dma.c ****               address and destination address and the Length of data to be transferred
  37:Drivers/STM32F1xx_HAL_Driver/Src/stm32f1xx_hal_dma.c ****           (+) Use HAL_DMA_PollForTransfer() to poll for the end of current transfer, in this
  38:Drivers/STM32F1xx_HAL_Driver/Src/stm32f1xx_hal_dma.c ****               case a fixed Timeout can be configured by User depending from his application.
  39:Drivers/STM32F1xx_HAL_Driver/Src/stm32f1xx_hal_dma.c **** 
  40:Drivers/STM32F1xx_HAL_Driver/Src/stm32f1xx_hal_dma.c ****      *** Interrupt mode IO operation ***
  41:Drivers/STM32F1xx_HAL_Driver/Src/stm32f1xx_hal_dma.c ****      ===================================
  42:Drivers/STM32F1xx_HAL_Driver/Src/stm32f1xx_hal_dma.c ****     [..]
  43:Drivers/STM32F1xx_HAL_Driver/Src/stm32f1xx_hal_dma.c ****           (+) Configure the DMA interrupt priority using HAL_NVIC_SetPriority()
  44:Drivers/STM32F1xx_HAL_Driver/Src/stm32f1xx_hal_dma.c ****           (+) Enable the DMA IRQ handler using HAL_NVIC_EnableIRQ()
  45:Drivers/STM32F1xx_HAL_Driver/Src/stm32f1xx_hal_dma.c ****           (+) Use HAL_DMA_Start_IT() to start DMA transfer after the configuration of
  46:Drivers/STM32F1xx_HAL_Driver/Src/stm32f1xx_hal_dma.c ****               Source address and destination address and the Length of data to be transferred.
  47:Drivers/STM32F1xx_HAL_Driver/Src/stm32f1xx_hal_dma.c ****               In this case the DMA interrupt is configured
  48:Drivers/STM32F1xx_HAL_Driver/Src/stm32f1xx_hal_dma.c ****           (+) Use HAL_DMA_IRQHandler() called under DMA_IRQHandler() Interrupt subroutine
  49:Drivers/STM32F1xx_HAL_Driver/Src/stm32f1xx_hal_dma.c ****           (+) At the end of data transfer HAL_DMA_IRQHandler() function is executed and user can
  50:Drivers/STM32F1xx_HAL_Driver/Src/stm32f1xx_hal_dma.c ****               add his own function by customization of function pointer XferCpltCallback and
  51:Drivers/STM32F1xx_HAL_Driver/Src/stm32f1xx_hal_dma.c ****               XferErrorCallback (i.e. a member of DMA handle structure).
  52:Drivers/STM32F1xx_HAL_Driver/Src/stm32f1xx_hal_dma.c **** 
  53:Drivers/STM32F1xx_HAL_Driver/Src/stm32f1xx_hal_dma.c ****      *** DMA HAL driver macros list ***
  54:Drivers/STM32F1xx_HAL_Driver/Src/stm32f1xx_hal_dma.c ****      ============================================= 
  55:Drivers/STM32F1xx_HAL_Driver/Src/stm32f1xx_hal_dma.c ****       [..]
  56:Drivers/STM32F1xx_HAL_Driver/Src/stm32f1xx_hal_dma.c ****        Below the list of most used macros in DMA HAL driver.
  57:Drivers/STM32F1xx_HAL_Driver/Src/stm32f1xx_hal_dma.c **** 
  58:Drivers/STM32F1xx_HAL_Driver/Src/stm32f1xx_hal_dma.c ****        (+) __HAL_DMA_ENABLE: Enable the specified DMA Channel.
  59:Drivers/STM32F1xx_HAL_Driver/Src/stm32f1xx_hal_dma.c ****        (+) __HAL_DMA_DISABLE: Disable the specified DMA Channel.
  60:Drivers/STM32F1xx_HAL_Driver/Src/stm32f1xx_hal_dma.c ****        (+) __HAL_DMA_GET_FLAG: Get the DMA Channel pending flags.
  61:Drivers/STM32F1xx_HAL_Driver/Src/stm32f1xx_hal_dma.c ****        (+) __HAL_DMA_CLEAR_FLAG: Clear the DMA Channel pending flags.
  62:Drivers/STM32F1xx_HAL_Driver/Src/stm32f1xx_hal_dma.c ****        (+) __HAL_DMA_ENABLE_IT: Enable the specified DMA Channel interrupts.
  63:Drivers/STM32F1xx_HAL_Driver/Src/stm32f1xx_hal_dma.c ****        (+) __HAL_DMA_DISABLE_IT: Disable the specified DMA Channel interrupts.
  64:Drivers/STM32F1xx_HAL_Driver/Src/stm32f1xx_hal_dma.c ****        (+) __HAL_DMA_GET_IT_SOURCE: Check whether the specified DMA Channel interrupt has occurred 
  65:Drivers/STM32F1xx_HAL_Driver/Src/stm32f1xx_hal_dma.c **** 
  66:Drivers/STM32F1xx_HAL_Driver/Src/stm32f1xx_hal_dma.c ****      [..] 
  67:Drivers/STM32F1xx_HAL_Driver/Src/stm32f1xx_hal_dma.c ****       (@) You can refer to the DMA HAL driver header file for more useful macros  
  68:Drivers/STM32F1xx_HAL_Driver/Src/stm32f1xx_hal_dma.c **** 
  69:Drivers/STM32F1xx_HAL_Driver/Src/stm32f1xx_hal_dma.c ****   @endverbatim
  70:Drivers/STM32F1xx_HAL_Driver/Src/stm32f1xx_hal_dma.c ****   ******************************************************************************
  71:Drivers/STM32F1xx_HAL_Driver/Src/stm32f1xx_hal_dma.c ****   * @attention
  72:Drivers/STM32F1xx_HAL_Driver/Src/stm32f1xx_hal_dma.c ****   *
  73:Drivers/STM32F1xx_HAL_Driver/Src/stm32f1xx_hal_dma.c ****   * <h2><center>&copy; Copyright (c) 2016 STMicroelectronics.
  74:Drivers/STM32F1xx_HAL_Driver/Src/stm32f1xx_hal_dma.c ****   * All rights reserved.</center></h2>
  75:Drivers/STM32F1xx_HAL_Driver/Src/stm32f1xx_hal_dma.c ****   *
  76:Drivers/STM32F1xx_HAL_Driver/Src/stm32f1xx_hal_dma.c ****   * This software component is licensed by ST under BSD 3-Clause license,
  77:Drivers/STM32F1xx_HAL_Driver/Src/stm32f1xx_hal_dma.c ****   * the "License"; You may not use this file except in compliance with the
  78:Drivers/STM32F1xx_HAL_Driver/Src/stm32f1xx_hal_dma.c ****   * License. You may obtain a copy of the License at:
  79:Drivers/STM32F1xx_HAL_Driver/Src/stm32f1xx_hal_dma.c ****   *                        opensource.org/licenses/BSD-3-Clause
  80:Drivers/STM32F1xx_HAL_Driver/Src/stm32f1xx_hal_dma.c ****   *
  81:Drivers/STM32F1xx_HAL_Driver/Src/stm32f1xx_hal_dma.c ****   ******************************************************************************
  82:Drivers/STM32F1xx_HAL_Driver/Src/stm32f1xx_hal_dma.c ****   */
  83:Drivers/STM32F1xx_HAL_Driver/Src/stm32f1xx_hal_dma.c **** 
  84:Drivers/STM32F1xx_HAL_Driver/Src/stm32f1xx_hal_dma.c **** /* Includes ------------------------------------------------------------------*/
  85:Drivers/STM32F1xx_HAL_Driver/Src/stm32f1xx_hal_dma.c **** #include "stm32f1xx_hal.h"
  86:Drivers/STM32F1xx_HAL_Driver/Src/stm32f1xx_hal_dma.c **** 
  87:Drivers/STM32F1xx_HAL_Driver/Src/stm32f1xx_hal_dma.c **** /** @addtogroup STM32F1xx_HAL_Driver
  88:Drivers/STM32F1xx_HAL_Driver/Src/stm32f1xx_hal_dma.c ****   * @{
  89:Drivers/STM32F1xx_HAL_Driver/Src/stm32f1xx_hal_dma.c ****   */
  90:Drivers/STM32F1xx_HAL_Driver/Src/stm32f1xx_hal_dma.c **** 
  91:Drivers/STM32F1xx_HAL_Driver/Src/stm32f1xx_hal_dma.c **** /** @defgroup DMA DMA
ARM GAS  /tmp/ccFYW4Uk.s 			page 3


  92:Drivers/STM32F1xx_HAL_Driver/Src/stm32f1xx_hal_dma.c ****   * @brief DMA HAL module driver
  93:Drivers/STM32F1xx_HAL_Driver/Src/stm32f1xx_hal_dma.c ****   * @{
  94:Drivers/STM32F1xx_HAL_Driver/Src/stm32f1xx_hal_dma.c ****   */
  95:Drivers/STM32F1xx_HAL_Driver/Src/stm32f1xx_hal_dma.c **** 
  96:Drivers/STM32F1xx_HAL_Driver/Src/stm32f1xx_hal_dma.c **** #ifdef HAL_DMA_MODULE_ENABLED
  97:Drivers/STM32F1xx_HAL_Driver/Src/stm32f1xx_hal_dma.c **** 
  98:Drivers/STM32F1xx_HAL_Driver/Src/stm32f1xx_hal_dma.c **** /* Private typedef -----------------------------------------------------------*/
  99:Drivers/STM32F1xx_HAL_Driver/Src/stm32f1xx_hal_dma.c **** /* Private define ------------------------------------------------------------*/
 100:Drivers/STM32F1xx_HAL_Driver/Src/stm32f1xx_hal_dma.c **** /* Private macro -------------------------------------------------------------*/
 101:Drivers/STM32F1xx_HAL_Driver/Src/stm32f1xx_hal_dma.c **** /* Private variables ---------------------------------------------------------*/
 102:Drivers/STM32F1xx_HAL_Driver/Src/stm32f1xx_hal_dma.c **** /* Private function prototypes -----------------------------------------------*/
 103:Drivers/STM32F1xx_HAL_Driver/Src/stm32f1xx_hal_dma.c **** /** @defgroup DMA_Private_Functions DMA Private Functions
 104:Drivers/STM32F1xx_HAL_Driver/Src/stm32f1xx_hal_dma.c ****   * @{
 105:Drivers/STM32F1xx_HAL_Driver/Src/stm32f1xx_hal_dma.c ****   */
 106:Drivers/STM32F1xx_HAL_Driver/Src/stm32f1xx_hal_dma.c **** static void DMA_SetConfig(DMA_HandleTypeDef *hdma, uint32_t SrcAddress, uint32_t DstAddress, uint32
 107:Drivers/STM32F1xx_HAL_Driver/Src/stm32f1xx_hal_dma.c **** /**
 108:Drivers/STM32F1xx_HAL_Driver/Src/stm32f1xx_hal_dma.c ****   * @}
 109:Drivers/STM32F1xx_HAL_Driver/Src/stm32f1xx_hal_dma.c ****   */
 110:Drivers/STM32F1xx_HAL_Driver/Src/stm32f1xx_hal_dma.c **** 
 111:Drivers/STM32F1xx_HAL_Driver/Src/stm32f1xx_hal_dma.c **** /* Exported functions ---------------------------------------------------------*/
 112:Drivers/STM32F1xx_HAL_Driver/Src/stm32f1xx_hal_dma.c **** 
 113:Drivers/STM32F1xx_HAL_Driver/Src/stm32f1xx_hal_dma.c **** /** @defgroup DMA_Exported_Functions DMA Exported Functions
 114:Drivers/STM32F1xx_HAL_Driver/Src/stm32f1xx_hal_dma.c ****   * @{
 115:Drivers/STM32F1xx_HAL_Driver/Src/stm32f1xx_hal_dma.c ****   */
 116:Drivers/STM32F1xx_HAL_Driver/Src/stm32f1xx_hal_dma.c **** 
 117:Drivers/STM32F1xx_HAL_Driver/Src/stm32f1xx_hal_dma.c **** /** @defgroup DMA_Exported_Functions_Group1 Initialization and de-initialization functions
 118:Drivers/STM32F1xx_HAL_Driver/Src/stm32f1xx_hal_dma.c ****   *  @brief   Initialization and de-initialization functions 
 119:Drivers/STM32F1xx_HAL_Driver/Src/stm32f1xx_hal_dma.c ****   *
 120:Drivers/STM32F1xx_HAL_Driver/Src/stm32f1xx_hal_dma.c **** @verbatim
 121:Drivers/STM32F1xx_HAL_Driver/Src/stm32f1xx_hal_dma.c ****  ===============================================================================
 122:Drivers/STM32F1xx_HAL_Driver/Src/stm32f1xx_hal_dma.c ****              ##### Initialization and de-initialization functions  #####
 123:Drivers/STM32F1xx_HAL_Driver/Src/stm32f1xx_hal_dma.c ****  ===============================================================================
 124:Drivers/STM32F1xx_HAL_Driver/Src/stm32f1xx_hal_dma.c ****     [..]
 125:Drivers/STM32F1xx_HAL_Driver/Src/stm32f1xx_hal_dma.c ****     This section provides functions allowing to initialize the DMA Channel source
 126:Drivers/STM32F1xx_HAL_Driver/Src/stm32f1xx_hal_dma.c ****     and destination addresses, incrementation and data sizes, transfer direction, 
 127:Drivers/STM32F1xx_HAL_Driver/Src/stm32f1xx_hal_dma.c ****     circular/normal mode selection, memory-to-memory mode selection and Channel priority value.
 128:Drivers/STM32F1xx_HAL_Driver/Src/stm32f1xx_hal_dma.c ****     [..]
 129:Drivers/STM32F1xx_HAL_Driver/Src/stm32f1xx_hal_dma.c ****     The HAL_DMA_Init() function follows the DMA configuration procedures as described in
 130:Drivers/STM32F1xx_HAL_Driver/Src/stm32f1xx_hal_dma.c ****     reference manual.  
 131:Drivers/STM32F1xx_HAL_Driver/Src/stm32f1xx_hal_dma.c **** 
 132:Drivers/STM32F1xx_HAL_Driver/Src/stm32f1xx_hal_dma.c **** @endverbatim
 133:Drivers/STM32F1xx_HAL_Driver/Src/stm32f1xx_hal_dma.c ****   * @{
 134:Drivers/STM32F1xx_HAL_Driver/Src/stm32f1xx_hal_dma.c ****   */
 135:Drivers/STM32F1xx_HAL_Driver/Src/stm32f1xx_hal_dma.c **** 
 136:Drivers/STM32F1xx_HAL_Driver/Src/stm32f1xx_hal_dma.c **** /**
 137:Drivers/STM32F1xx_HAL_Driver/Src/stm32f1xx_hal_dma.c ****   * @brief  Initialize the DMA according to the specified
 138:Drivers/STM32F1xx_HAL_Driver/Src/stm32f1xx_hal_dma.c ****   *         parameters in the DMA_InitTypeDef and initialize the associated handle.
 139:Drivers/STM32F1xx_HAL_Driver/Src/stm32f1xx_hal_dma.c ****   * @param  hdma: Pointer to a DMA_HandleTypeDef structure that contains
 140:Drivers/STM32F1xx_HAL_Driver/Src/stm32f1xx_hal_dma.c ****   *               the configuration information for the specified DMA Channel.
 141:Drivers/STM32F1xx_HAL_Driver/Src/stm32f1xx_hal_dma.c ****   * @retval HAL status
 142:Drivers/STM32F1xx_HAL_Driver/Src/stm32f1xx_hal_dma.c ****   */
 143:Drivers/STM32F1xx_HAL_Driver/Src/stm32f1xx_hal_dma.c **** HAL_StatusTypeDef HAL_DMA_Init(DMA_HandleTypeDef *hdma)
 144:Drivers/STM32F1xx_HAL_Driver/Src/stm32f1xx_hal_dma.c **** {
 145:Drivers/STM32F1xx_HAL_Driver/Src/stm32f1xx_hal_dma.c ****   uint32_t tmp = 0U;
 146:Drivers/STM32F1xx_HAL_Driver/Src/stm32f1xx_hal_dma.c **** 
 147:Drivers/STM32F1xx_HAL_Driver/Src/stm32f1xx_hal_dma.c ****   /* Check the DMA handle allocation */
 148:Drivers/STM32F1xx_HAL_Driver/Src/stm32f1xx_hal_dma.c ****   if(hdma == NULL)
ARM GAS  /tmp/ccFYW4Uk.s 			page 4


 149:Drivers/STM32F1xx_HAL_Driver/Src/stm32f1xx_hal_dma.c ****   {
 150:Drivers/STM32F1xx_HAL_Driver/Src/stm32f1xx_hal_dma.c ****     return HAL_ERROR;
 151:Drivers/STM32F1xx_HAL_Driver/Src/stm32f1xx_hal_dma.c ****   }
 152:Drivers/STM32F1xx_HAL_Driver/Src/stm32f1xx_hal_dma.c **** 
 153:Drivers/STM32F1xx_HAL_Driver/Src/stm32f1xx_hal_dma.c ****   /* Check the parameters */
 154:Drivers/STM32F1xx_HAL_Driver/Src/stm32f1xx_hal_dma.c ****   assert_param(IS_DMA_ALL_INSTANCE(hdma->Instance));
 155:Drivers/STM32F1xx_HAL_Driver/Src/stm32f1xx_hal_dma.c ****   assert_param(IS_DMA_DIRECTION(hdma->Init.Direction));
 156:Drivers/STM32F1xx_HAL_Driver/Src/stm32f1xx_hal_dma.c ****   assert_param(IS_DMA_PERIPHERAL_INC_STATE(hdma->Init.PeriphInc));
 157:Drivers/STM32F1xx_HAL_Driver/Src/stm32f1xx_hal_dma.c ****   assert_param(IS_DMA_MEMORY_INC_STATE(hdma->Init.MemInc));
 158:Drivers/STM32F1xx_HAL_Driver/Src/stm32f1xx_hal_dma.c ****   assert_param(IS_DMA_PERIPHERAL_DATA_SIZE(hdma->Init.PeriphDataAlignment));
 159:Drivers/STM32F1xx_HAL_Driver/Src/stm32f1xx_hal_dma.c ****   assert_param(IS_DMA_MEMORY_DATA_SIZE(hdma->Init.MemDataAlignment));
 160:Drivers/STM32F1xx_HAL_Driver/Src/stm32f1xx_hal_dma.c ****   assert_param(IS_DMA_MODE(hdma->Init.Mode));
 161:Drivers/STM32F1xx_HAL_Driver/Src/stm32f1xx_hal_dma.c ****   assert_param(IS_DMA_PRIORITY(hdma->Init.Priority));
 162:Drivers/STM32F1xx_HAL_Driver/Src/stm32f1xx_hal_dma.c **** 
 163:Drivers/STM32F1xx_HAL_Driver/Src/stm32f1xx_hal_dma.c **** #if defined (DMA2)
 164:Drivers/STM32F1xx_HAL_Driver/Src/stm32f1xx_hal_dma.c ****   /* calculation of the channel index */
 165:Drivers/STM32F1xx_HAL_Driver/Src/stm32f1xx_hal_dma.c ****   if ((uint32_t)(hdma->Instance) < (uint32_t)(DMA2_Channel1))
 166:Drivers/STM32F1xx_HAL_Driver/Src/stm32f1xx_hal_dma.c ****   {
 167:Drivers/STM32F1xx_HAL_Driver/Src/stm32f1xx_hal_dma.c ****     /* DMA1 */
 168:Drivers/STM32F1xx_HAL_Driver/Src/stm32f1xx_hal_dma.c ****     hdma->ChannelIndex = (((uint32_t)hdma->Instance - (uint32_t)DMA1_Channel1) / ((uint32_t)DMA1_Ch
 169:Drivers/STM32F1xx_HAL_Driver/Src/stm32f1xx_hal_dma.c ****     hdma->DmaBaseAddress = DMA1;
 170:Drivers/STM32F1xx_HAL_Driver/Src/stm32f1xx_hal_dma.c ****   }
 171:Drivers/STM32F1xx_HAL_Driver/Src/stm32f1xx_hal_dma.c ****   else 
 172:Drivers/STM32F1xx_HAL_Driver/Src/stm32f1xx_hal_dma.c ****   {
 173:Drivers/STM32F1xx_HAL_Driver/Src/stm32f1xx_hal_dma.c ****     /* DMA2 */
 174:Drivers/STM32F1xx_HAL_Driver/Src/stm32f1xx_hal_dma.c ****     hdma->ChannelIndex = (((uint32_t)hdma->Instance - (uint32_t)DMA2_Channel1) / ((uint32_t)DMA2_Ch
 175:Drivers/STM32F1xx_HAL_Driver/Src/stm32f1xx_hal_dma.c ****     hdma->DmaBaseAddress = DMA2;
 176:Drivers/STM32F1xx_HAL_Driver/Src/stm32f1xx_hal_dma.c ****   }
 177:Drivers/STM32F1xx_HAL_Driver/Src/stm32f1xx_hal_dma.c **** #else
 178:Drivers/STM32F1xx_HAL_Driver/Src/stm32f1xx_hal_dma.c ****   /* DMA1 */
 179:Drivers/STM32F1xx_HAL_Driver/Src/stm32f1xx_hal_dma.c ****   hdma->ChannelIndex = (((uint32_t)hdma->Instance - (uint32_t)DMA1_Channel1) / ((uint32_t)DMA1_Chan
 180:Drivers/STM32F1xx_HAL_Driver/Src/stm32f1xx_hal_dma.c ****   hdma->DmaBaseAddress = DMA1;
 181:Drivers/STM32F1xx_HAL_Driver/Src/stm32f1xx_hal_dma.c **** #endif /* DMA2 */
 182:Drivers/STM32F1xx_HAL_Driver/Src/stm32f1xx_hal_dma.c **** 
 183:Drivers/STM32F1xx_HAL_Driver/Src/stm32f1xx_hal_dma.c ****   /* Change DMA peripheral state */
 184:Drivers/STM32F1xx_HAL_Driver/Src/stm32f1xx_hal_dma.c ****   hdma->State = HAL_DMA_STATE_BUSY;
 185:Drivers/STM32F1xx_HAL_Driver/Src/stm32f1xx_hal_dma.c **** 
 186:Drivers/STM32F1xx_HAL_Driver/Src/stm32f1xx_hal_dma.c ****   /* Get the CR register value */
 187:Drivers/STM32F1xx_HAL_Driver/Src/stm32f1xx_hal_dma.c ****   tmp = hdma->Instance->CCR;
 188:Drivers/STM32F1xx_HAL_Driver/Src/stm32f1xx_hal_dma.c **** 
 189:Drivers/STM32F1xx_HAL_Driver/Src/stm32f1xx_hal_dma.c ****   /* Clear PL, MSIZE, PSIZE, MINC, PINC, CIRC and DIR bits */
 190:Drivers/STM32F1xx_HAL_Driver/Src/stm32f1xx_hal_dma.c ****   tmp &= ((uint32_t)~(DMA_CCR_PL    | DMA_CCR_MSIZE  | DMA_CCR_PSIZE  | \
 191:Drivers/STM32F1xx_HAL_Driver/Src/stm32f1xx_hal_dma.c ****                       DMA_CCR_MINC  | DMA_CCR_PINC   | DMA_CCR_CIRC   | \
 192:Drivers/STM32F1xx_HAL_Driver/Src/stm32f1xx_hal_dma.c ****                       DMA_CCR_DIR));
 193:Drivers/STM32F1xx_HAL_Driver/Src/stm32f1xx_hal_dma.c **** 
 194:Drivers/STM32F1xx_HAL_Driver/Src/stm32f1xx_hal_dma.c ****   /* Prepare the DMA Channel configuration */
 195:Drivers/STM32F1xx_HAL_Driver/Src/stm32f1xx_hal_dma.c ****   tmp |=  hdma->Init.Direction        |
 196:Drivers/STM32F1xx_HAL_Driver/Src/stm32f1xx_hal_dma.c ****           hdma->Init.PeriphInc           | hdma->Init.MemInc           |
 197:Drivers/STM32F1xx_HAL_Driver/Src/stm32f1xx_hal_dma.c ****           hdma->Init.PeriphDataAlignment | hdma->Init.MemDataAlignment |
 198:Drivers/STM32F1xx_HAL_Driver/Src/stm32f1xx_hal_dma.c ****           hdma->Init.Mode                | hdma->Init.Priority;
 199:Drivers/STM32F1xx_HAL_Driver/Src/stm32f1xx_hal_dma.c **** 
 200:Drivers/STM32F1xx_HAL_Driver/Src/stm32f1xx_hal_dma.c ****   /* Write to DMA Channel CR register */
 201:Drivers/STM32F1xx_HAL_Driver/Src/stm32f1xx_hal_dma.c ****   hdma->Instance->CCR = tmp;
 202:Drivers/STM32F1xx_HAL_Driver/Src/stm32f1xx_hal_dma.c **** 
 203:Drivers/STM32F1xx_HAL_Driver/Src/stm32f1xx_hal_dma.c ****   /* Initialise the error code */
 204:Drivers/STM32F1xx_HAL_Driver/Src/stm32f1xx_hal_dma.c ****   hdma->ErrorCode = HAL_DMA_ERROR_NONE;
 205:Drivers/STM32F1xx_HAL_Driver/Src/stm32f1xx_hal_dma.c **** 
ARM GAS  /tmp/ccFYW4Uk.s 			page 5


 206:Drivers/STM32F1xx_HAL_Driver/Src/stm32f1xx_hal_dma.c ****   /* Initialize the DMA state*/
 207:Drivers/STM32F1xx_HAL_Driver/Src/stm32f1xx_hal_dma.c ****   hdma->State = HAL_DMA_STATE_READY;
 208:Drivers/STM32F1xx_HAL_Driver/Src/stm32f1xx_hal_dma.c ****   /* Allocate lock resource and initialize it */
 209:Drivers/STM32F1xx_HAL_Driver/Src/stm32f1xx_hal_dma.c ****   hdma->Lock = HAL_UNLOCKED;
 210:Drivers/STM32F1xx_HAL_Driver/Src/stm32f1xx_hal_dma.c **** 
 211:Drivers/STM32F1xx_HAL_Driver/Src/stm32f1xx_hal_dma.c ****   return HAL_OK;
 212:Drivers/STM32F1xx_HAL_Driver/Src/stm32f1xx_hal_dma.c **** }
 213:Drivers/STM32F1xx_HAL_Driver/Src/stm32f1xx_hal_dma.c **** 
 214:Drivers/STM32F1xx_HAL_Driver/Src/stm32f1xx_hal_dma.c **** /**
 215:Drivers/STM32F1xx_HAL_Driver/Src/stm32f1xx_hal_dma.c ****   * @brief  DeInitialize the DMA peripheral.
 216:Drivers/STM32F1xx_HAL_Driver/Src/stm32f1xx_hal_dma.c ****   * @param  hdma: pointer to a DMA_HandleTypeDef structure that contains
 217:Drivers/STM32F1xx_HAL_Driver/Src/stm32f1xx_hal_dma.c ****   *               the configuration information for the specified DMA Channel.
 218:Drivers/STM32F1xx_HAL_Driver/Src/stm32f1xx_hal_dma.c ****   * @retval HAL status
 219:Drivers/STM32F1xx_HAL_Driver/Src/stm32f1xx_hal_dma.c ****   */
 220:Drivers/STM32F1xx_HAL_Driver/Src/stm32f1xx_hal_dma.c **** HAL_StatusTypeDef HAL_DMA_DeInit(DMA_HandleTypeDef *hdma)
 221:Drivers/STM32F1xx_HAL_Driver/Src/stm32f1xx_hal_dma.c **** {
 222:Drivers/STM32F1xx_HAL_Driver/Src/stm32f1xx_hal_dma.c ****   /* Check the DMA handle allocation */
 223:Drivers/STM32F1xx_HAL_Driver/Src/stm32f1xx_hal_dma.c ****   if(hdma == NULL)
 224:Drivers/STM32F1xx_HAL_Driver/Src/stm32f1xx_hal_dma.c ****   {
 225:Drivers/STM32F1xx_HAL_Driver/Src/stm32f1xx_hal_dma.c ****     return HAL_ERROR;
 226:Drivers/STM32F1xx_HAL_Driver/Src/stm32f1xx_hal_dma.c ****   }
 227:Drivers/STM32F1xx_HAL_Driver/Src/stm32f1xx_hal_dma.c **** 
 228:Drivers/STM32F1xx_HAL_Driver/Src/stm32f1xx_hal_dma.c ****   /* Check the parameters */
 229:Drivers/STM32F1xx_HAL_Driver/Src/stm32f1xx_hal_dma.c ****   assert_param(IS_DMA_ALL_INSTANCE(hdma->Instance));
 230:Drivers/STM32F1xx_HAL_Driver/Src/stm32f1xx_hal_dma.c **** 
 231:Drivers/STM32F1xx_HAL_Driver/Src/stm32f1xx_hal_dma.c ****   /* Disable the selected DMA Channelx */
 232:Drivers/STM32F1xx_HAL_Driver/Src/stm32f1xx_hal_dma.c ****   __HAL_DMA_DISABLE(hdma);
 233:Drivers/STM32F1xx_HAL_Driver/Src/stm32f1xx_hal_dma.c **** 
 234:Drivers/STM32F1xx_HAL_Driver/Src/stm32f1xx_hal_dma.c ****   /* Reset DMA Channel control register */
 235:Drivers/STM32F1xx_HAL_Driver/Src/stm32f1xx_hal_dma.c ****   hdma->Instance->CCR  = 0U;
 236:Drivers/STM32F1xx_HAL_Driver/Src/stm32f1xx_hal_dma.c **** 
 237:Drivers/STM32F1xx_HAL_Driver/Src/stm32f1xx_hal_dma.c ****   /* Reset DMA Channel Number of Data to Transfer register */
 238:Drivers/STM32F1xx_HAL_Driver/Src/stm32f1xx_hal_dma.c ****   hdma->Instance->CNDTR = 0U;
 239:Drivers/STM32F1xx_HAL_Driver/Src/stm32f1xx_hal_dma.c **** 
 240:Drivers/STM32F1xx_HAL_Driver/Src/stm32f1xx_hal_dma.c ****   /* Reset DMA Channel peripheral address register */
 241:Drivers/STM32F1xx_HAL_Driver/Src/stm32f1xx_hal_dma.c ****   hdma->Instance->CPAR  = 0U;
 242:Drivers/STM32F1xx_HAL_Driver/Src/stm32f1xx_hal_dma.c **** 
 243:Drivers/STM32F1xx_HAL_Driver/Src/stm32f1xx_hal_dma.c ****   /* Reset DMA Channel memory address register */
 244:Drivers/STM32F1xx_HAL_Driver/Src/stm32f1xx_hal_dma.c ****   hdma->Instance->CMAR = 0U;
 245:Drivers/STM32F1xx_HAL_Driver/Src/stm32f1xx_hal_dma.c **** 
 246:Drivers/STM32F1xx_HAL_Driver/Src/stm32f1xx_hal_dma.c **** #if defined (DMA2)
 247:Drivers/STM32F1xx_HAL_Driver/Src/stm32f1xx_hal_dma.c ****   /* calculation of the channel index */
 248:Drivers/STM32F1xx_HAL_Driver/Src/stm32f1xx_hal_dma.c ****   if ((uint32_t)(hdma->Instance) < (uint32_t)(DMA2_Channel1))
 249:Drivers/STM32F1xx_HAL_Driver/Src/stm32f1xx_hal_dma.c ****   {
 250:Drivers/STM32F1xx_HAL_Driver/Src/stm32f1xx_hal_dma.c ****     /* DMA1 */
 251:Drivers/STM32F1xx_HAL_Driver/Src/stm32f1xx_hal_dma.c ****     hdma->ChannelIndex = (((uint32_t)hdma->Instance - (uint32_t)DMA1_Channel1) / ((uint32_t)DMA1_Ch
 252:Drivers/STM32F1xx_HAL_Driver/Src/stm32f1xx_hal_dma.c ****     hdma->DmaBaseAddress = DMA1;
 253:Drivers/STM32F1xx_HAL_Driver/Src/stm32f1xx_hal_dma.c ****   }
 254:Drivers/STM32F1xx_HAL_Driver/Src/stm32f1xx_hal_dma.c ****   else
 255:Drivers/STM32F1xx_HAL_Driver/Src/stm32f1xx_hal_dma.c ****   {
 256:Drivers/STM32F1xx_HAL_Driver/Src/stm32f1xx_hal_dma.c ****     /* DMA2 */
 257:Drivers/STM32F1xx_HAL_Driver/Src/stm32f1xx_hal_dma.c ****     hdma->ChannelIndex = (((uint32_t)hdma->Instance - (uint32_t)DMA2_Channel1) / ((uint32_t)DMA2_Ch
 258:Drivers/STM32F1xx_HAL_Driver/Src/stm32f1xx_hal_dma.c ****     hdma->DmaBaseAddress = DMA2;
 259:Drivers/STM32F1xx_HAL_Driver/Src/stm32f1xx_hal_dma.c ****   }
 260:Drivers/STM32F1xx_HAL_Driver/Src/stm32f1xx_hal_dma.c **** #else
 261:Drivers/STM32F1xx_HAL_Driver/Src/stm32f1xx_hal_dma.c ****   /* DMA1 */
 262:Drivers/STM32F1xx_HAL_Driver/Src/stm32f1xx_hal_dma.c ****   hdma->ChannelIndex = (((uint32_t)hdma->Instance - (uint32_t)DMA1_Channel1) / ((uint32_t)DMA1_Chan
ARM GAS  /tmp/ccFYW4Uk.s 			page 6


 263:Drivers/STM32F1xx_HAL_Driver/Src/stm32f1xx_hal_dma.c ****   hdma->DmaBaseAddress = DMA1;
 264:Drivers/STM32F1xx_HAL_Driver/Src/stm32f1xx_hal_dma.c **** #endif /* DMA2 */
 265:Drivers/STM32F1xx_HAL_Driver/Src/stm32f1xx_hal_dma.c **** 
 266:Drivers/STM32F1xx_HAL_Driver/Src/stm32f1xx_hal_dma.c ****   /* Clear all flags */
 267:Drivers/STM32F1xx_HAL_Driver/Src/stm32f1xx_hal_dma.c ****   hdma->DmaBaseAddress->IFCR = (DMA_ISR_GIF1 << (hdma->ChannelIndex));
 268:Drivers/STM32F1xx_HAL_Driver/Src/stm32f1xx_hal_dma.c **** 
 269:Drivers/STM32F1xx_HAL_Driver/Src/stm32f1xx_hal_dma.c ****   /* Clean all callbacks */
 270:Drivers/STM32F1xx_HAL_Driver/Src/stm32f1xx_hal_dma.c ****   hdma->XferCpltCallback = NULL;
 271:Drivers/STM32F1xx_HAL_Driver/Src/stm32f1xx_hal_dma.c ****   hdma->XferHalfCpltCallback = NULL;
 272:Drivers/STM32F1xx_HAL_Driver/Src/stm32f1xx_hal_dma.c ****   hdma->XferErrorCallback = NULL;
 273:Drivers/STM32F1xx_HAL_Driver/Src/stm32f1xx_hal_dma.c ****   hdma->XferAbortCallback = NULL;
 274:Drivers/STM32F1xx_HAL_Driver/Src/stm32f1xx_hal_dma.c **** 
 275:Drivers/STM32F1xx_HAL_Driver/Src/stm32f1xx_hal_dma.c ****   /* Reset the error code */
 276:Drivers/STM32F1xx_HAL_Driver/Src/stm32f1xx_hal_dma.c ****   hdma->ErrorCode = HAL_DMA_ERROR_NONE;
 277:Drivers/STM32F1xx_HAL_Driver/Src/stm32f1xx_hal_dma.c **** 
 278:Drivers/STM32F1xx_HAL_Driver/Src/stm32f1xx_hal_dma.c ****   /* Reset the DMA state */
 279:Drivers/STM32F1xx_HAL_Driver/Src/stm32f1xx_hal_dma.c ****   hdma->State = HAL_DMA_STATE_RESET;
 280:Drivers/STM32F1xx_HAL_Driver/Src/stm32f1xx_hal_dma.c **** 
 281:Drivers/STM32F1xx_HAL_Driver/Src/stm32f1xx_hal_dma.c ****   /* Release Lock */
 282:Drivers/STM32F1xx_HAL_Driver/Src/stm32f1xx_hal_dma.c ****   __HAL_UNLOCK(hdma);
 283:Drivers/STM32F1xx_HAL_Driver/Src/stm32f1xx_hal_dma.c **** 
 284:Drivers/STM32F1xx_HAL_Driver/Src/stm32f1xx_hal_dma.c ****   return HAL_OK;
 285:Drivers/STM32F1xx_HAL_Driver/Src/stm32f1xx_hal_dma.c **** }
 286:Drivers/STM32F1xx_HAL_Driver/Src/stm32f1xx_hal_dma.c **** 
 287:Drivers/STM32F1xx_HAL_Driver/Src/stm32f1xx_hal_dma.c **** /**
 288:Drivers/STM32F1xx_HAL_Driver/Src/stm32f1xx_hal_dma.c ****   * @}
 289:Drivers/STM32F1xx_HAL_Driver/Src/stm32f1xx_hal_dma.c ****   */
 290:Drivers/STM32F1xx_HAL_Driver/Src/stm32f1xx_hal_dma.c **** 
 291:Drivers/STM32F1xx_HAL_Driver/Src/stm32f1xx_hal_dma.c **** /** @defgroup DMA_Exported_Functions_Group2 Input and Output operation functions
 292:Drivers/STM32F1xx_HAL_Driver/Src/stm32f1xx_hal_dma.c ****   *  @brief   Input and Output operation functions
 293:Drivers/STM32F1xx_HAL_Driver/Src/stm32f1xx_hal_dma.c ****   *
 294:Drivers/STM32F1xx_HAL_Driver/Src/stm32f1xx_hal_dma.c **** @verbatim
 295:Drivers/STM32F1xx_HAL_Driver/Src/stm32f1xx_hal_dma.c ****  ===============================================================================
 296:Drivers/STM32F1xx_HAL_Driver/Src/stm32f1xx_hal_dma.c ****                       #####  IO operation functions  #####
 297:Drivers/STM32F1xx_HAL_Driver/Src/stm32f1xx_hal_dma.c ****  ===============================================================================
 298:Drivers/STM32F1xx_HAL_Driver/Src/stm32f1xx_hal_dma.c ****     [..]  This section provides functions allowing to:
 299:Drivers/STM32F1xx_HAL_Driver/Src/stm32f1xx_hal_dma.c ****       (+) Configure the source, destination address and data length and Start DMA transfer
 300:Drivers/STM32F1xx_HAL_Driver/Src/stm32f1xx_hal_dma.c ****       (+) Configure the source, destination address and data length and
 301:Drivers/STM32F1xx_HAL_Driver/Src/stm32f1xx_hal_dma.c ****           Start DMA transfer with interrupt
 302:Drivers/STM32F1xx_HAL_Driver/Src/stm32f1xx_hal_dma.c ****       (+) Abort DMA transfer
 303:Drivers/STM32F1xx_HAL_Driver/Src/stm32f1xx_hal_dma.c ****       (+) Poll for transfer complete
 304:Drivers/STM32F1xx_HAL_Driver/Src/stm32f1xx_hal_dma.c ****       (+) Handle DMA interrupt request
 305:Drivers/STM32F1xx_HAL_Driver/Src/stm32f1xx_hal_dma.c **** 
 306:Drivers/STM32F1xx_HAL_Driver/Src/stm32f1xx_hal_dma.c **** @endverbatim
 307:Drivers/STM32F1xx_HAL_Driver/Src/stm32f1xx_hal_dma.c ****   * @{
 308:Drivers/STM32F1xx_HAL_Driver/Src/stm32f1xx_hal_dma.c ****   */
 309:Drivers/STM32F1xx_HAL_Driver/Src/stm32f1xx_hal_dma.c **** 
 310:Drivers/STM32F1xx_HAL_Driver/Src/stm32f1xx_hal_dma.c **** /**
 311:Drivers/STM32F1xx_HAL_Driver/Src/stm32f1xx_hal_dma.c ****   * @brief  Start the DMA Transfer.
 312:Drivers/STM32F1xx_HAL_Driver/Src/stm32f1xx_hal_dma.c ****   * @param  hdma: pointer to a DMA_HandleTypeDef structure that contains
 313:Drivers/STM32F1xx_HAL_Driver/Src/stm32f1xx_hal_dma.c ****   *               the configuration information for the specified DMA Channel.
 314:Drivers/STM32F1xx_HAL_Driver/Src/stm32f1xx_hal_dma.c ****   * @param  SrcAddress: The source memory Buffer address
 315:Drivers/STM32F1xx_HAL_Driver/Src/stm32f1xx_hal_dma.c ****   * @param  DstAddress: The destination memory Buffer address
 316:Drivers/STM32F1xx_HAL_Driver/Src/stm32f1xx_hal_dma.c ****   * @param  DataLength: The length of data to be transferred from source to destination
 317:Drivers/STM32F1xx_HAL_Driver/Src/stm32f1xx_hal_dma.c ****   * @retval HAL status
 318:Drivers/STM32F1xx_HAL_Driver/Src/stm32f1xx_hal_dma.c ****   */
 319:Drivers/STM32F1xx_HAL_Driver/Src/stm32f1xx_hal_dma.c **** HAL_StatusTypeDef HAL_DMA_Start(DMA_HandleTypeDef *hdma, uint32_t SrcAddress, uint32_t DstAddress, 
ARM GAS  /tmp/ccFYW4Uk.s 			page 7


 320:Drivers/STM32F1xx_HAL_Driver/Src/stm32f1xx_hal_dma.c **** {
 321:Drivers/STM32F1xx_HAL_Driver/Src/stm32f1xx_hal_dma.c ****   HAL_StatusTypeDef status = HAL_OK;
 322:Drivers/STM32F1xx_HAL_Driver/Src/stm32f1xx_hal_dma.c **** 
 323:Drivers/STM32F1xx_HAL_Driver/Src/stm32f1xx_hal_dma.c ****   /* Check the parameters */
 324:Drivers/STM32F1xx_HAL_Driver/Src/stm32f1xx_hal_dma.c ****   assert_param(IS_DMA_BUFFER_SIZE(DataLength));
 325:Drivers/STM32F1xx_HAL_Driver/Src/stm32f1xx_hal_dma.c **** 
 326:Drivers/STM32F1xx_HAL_Driver/Src/stm32f1xx_hal_dma.c ****   /* Process locked */
 327:Drivers/STM32F1xx_HAL_Driver/Src/stm32f1xx_hal_dma.c ****   __HAL_LOCK(hdma);
 328:Drivers/STM32F1xx_HAL_Driver/Src/stm32f1xx_hal_dma.c **** 
 329:Drivers/STM32F1xx_HAL_Driver/Src/stm32f1xx_hal_dma.c ****   if(HAL_DMA_STATE_READY == hdma->State)
 330:Drivers/STM32F1xx_HAL_Driver/Src/stm32f1xx_hal_dma.c ****   {
 331:Drivers/STM32F1xx_HAL_Driver/Src/stm32f1xx_hal_dma.c ****     /* Change DMA peripheral state */
 332:Drivers/STM32F1xx_HAL_Driver/Src/stm32f1xx_hal_dma.c ****     hdma->State = HAL_DMA_STATE_BUSY;
 333:Drivers/STM32F1xx_HAL_Driver/Src/stm32f1xx_hal_dma.c ****     hdma->ErrorCode = HAL_DMA_ERROR_NONE;
 334:Drivers/STM32F1xx_HAL_Driver/Src/stm32f1xx_hal_dma.c ****             
 335:Drivers/STM32F1xx_HAL_Driver/Src/stm32f1xx_hal_dma.c ****     /* Disable the peripheral */
 336:Drivers/STM32F1xx_HAL_Driver/Src/stm32f1xx_hal_dma.c ****     __HAL_DMA_DISABLE(hdma);
 337:Drivers/STM32F1xx_HAL_Driver/Src/stm32f1xx_hal_dma.c ****     
 338:Drivers/STM32F1xx_HAL_Driver/Src/stm32f1xx_hal_dma.c ****     /* Configure the source, destination address and the data length & clear flags*/
 339:Drivers/STM32F1xx_HAL_Driver/Src/stm32f1xx_hal_dma.c ****     DMA_SetConfig(hdma, SrcAddress, DstAddress, DataLength);
 340:Drivers/STM32F1xx_HAL_Driver/Src/stm32f1xx_hal_dma.c ****     
 341:Drivers/STM32F1xx_HAL_Driver/Src/stm32f1xx_hal_dma.c ****     /* Enable the Peripheral */
 342:Drivers/STM32F1xx_HAL_Driver/Src/stm32f1xx_hal_dma.c ****     __HAL_DMA_ENABLE(hdma);
 343:Drivers/STM32F1xx_HAL_Driver/Src/stm32f1xx_hal_dma.c ****   }
 344:Drivers/STM32F1xx_HAL_Driver/Src/stm32f1xx_hal_dma.c ****   else
 345:Drivers/STM32F1xx_HAL_Driver/Src/stm32f1xx_hal_dma.c ****   {
 346:Drivers/STM32F1xx_HAL_Driver/Src/stm32f1xx_hal_dma.c ****    /* Process Unlocked */
 347:Drivers/STM32F1xx_HAL_Driver/Src/stm32f1xx_hal_dma.c ****    __HAL_UNLOCK(hdma);  
 348:Drivers/STM32F1xx_HAL_Driver/Src/stm32f1xx_hal_dma.c ****    status = HAL_BUSY;
 349:Drivers/STM32F1xx_HAL_Driver/Src/stm32f1xx_hal_dma.c ****   }  
 350:Drivers/STM32F1xx_HAL_Driver/Src/stm32f1xx_hal_dma.c ****   return status;
 351:Drivers/STM32F1xx_HAL_Driver/Src/stm32f1xx_hal_dma.c **** }
 352:Drivers/STM32F1xx_HAL_Driver/Src/stm32f1xx_hal_dma.c **** 
 353:Drivers/STM32F1xx_HAL_Driver/Src/stm32f1xx_hal_dma.c **** /**
 354:Drivers/STM32F1xx_HAL_Driver/Src/stm32f1xx_hal_dma.c ****   * @brief  Start the DMA Transfer with interrupt enabled.
 355:Drivers/STM32F1xx_HAL_Driver/Src/stm32f1xx_hal_dma.c ****   * @param  hdma: pointer to a DMA_HandleTypeDef structure that contains
 356:Drivers/STM32F1xx_HAL_Driver/Src/stm32f1xx_hal_dma.c ****   *               the configuration information for the specified DMA Channel.
 357:Drivers/STM32F1xx_HAL_Driver/Src/stm32f1xx_hal_dma.c ****   * @param  SrcAddress: The source memory Buffer address
 358:Drivers/STM32F1xx_HAL_Driver/Src/stm32f1xx_hal_dma.c ****   * @param  DstAddress: The destination memory Buffer address
 359:Drivers/STM32F1xx_HAL_Driver/Src/stm32f1xx_hal_dma.c ****   * @param  DataLength: The length of data to be transferred from source to destination
 360:Drivers/STM32F1xx_HAL_Driver/Src/stm32f1xx_hal_dma.c ****   * @retval HAL status
 361:Drivers/STM32F1xx_HAL_Driver/Src/stm32f1xx_hal_dma.c ****   */
 362:Drivers/STM32F1xx_HAL_Driver/Src/stm32f1xx_hal_dma.c **** HAL_StatusTypeDef HAL_DMA_Start_IT(DMA_HandleTypeDef *hdma, uint32_t SrcAddress, uint32_t DstAddres
 363:Drivers/STM32F1xx_HAL_Driver/Src/stm32f1xx_hal_dma.c **** {
 364:Drivers/STM32F1xx_HAL_Driver/Src/stm32f1xx_hal_dma.c ****   HAL_StatusTypeDef status = HAL_OK;
 365:Drivers/STM32F1xx_HAL_Driver/Src/stm32f1xx_hal_dma.c **** 
 366:Drivers/STM32F1xx_HAL_Driver/Src/stm32f1xx_hal_dma.c ****   /* Check the parameters */
 367:Drivers/STM32F1xx_HAL_Driver/Src/stm32f1xx_hal_dma.c ****   assert_param(IS_DMA_BUFFER_SIZE(DataLength));
 368:Drivers/STM32F1xx_HAL_Driver/Src/stm32f1xx_hal_dma.c **** 
 369:Drivers/STM32F1xx_HAL_Driver/Src/stm32f1xx_hal_dma.c ****   /* Process locked */
 370:Drivers/STM32F1xx_HAL_Driver/Src/stm32f1xx_hal_dma.c ****   __HAL_LOCK(hdma);
 371:Drivers/STM32F1xx_HAL_Driver/Src/stm32f1xx_hal_dma.c ****   
 372:Drivers/STM32F1xx_HAL_Driver/Src/stm32f1xx_hal_dma.c ****   if(HAL_DMA_STATE_READY == hdma->State)
 373:Drivers/STM32F1xx_HAL_Driver/Src/stm32f1xx_hal_dma.c ****   {
 374:Drivers/STM32F1xx_HAL_Driver/Src/stm32f1xx_hal_dma.c ****     /* Change DMA peripheral state */
 375:Drivers/STM32F1xx_HAL_Driver/Src/stm32f1xx_hal_dma.c ****     hdma->State = HAL_DMA_STATE_BUSY;
 376:Drivers/STM32F1xx_HAL_Driver/Src/stm32f1xx_hal_dma.c ****     hdma->ErrorCode = HAL_DMA_ERROR_NONE;
ARM GAS  /tmp/ccFYW4Uk.s 			page 8


 377:Drivers/STM32F1xx_HAL_Driver/Src/stm32f1xx_hal_dma.c ****     
 378:Drivers/STM32F1xx_HAL_Driver/Src/stm32f1xx_hal_dma.c ****     /* Disable the peripheral */
 379:Drivers/STM32F1xx_HAL_Driver/Src/stm32f1xx_hal_dma.c ****     __HAL_DMA_DISABLE(hdma);
 380:Drivers/STM32F1xx_HAL_Driver/Src/stm32f1xx_hal_dma.c ****     
 381:Drivers/STM32F1xx_HAL_Driver/Src/stm32f1xx_hal_dma.c ****     /* Configure the source, destination address and the data length & clear flags*/
 382:Drivers/STM32F1xx_HAL_Driver/Src/stm32f1xx_hal_dma.c ****     DMA_SetConfig(hdma, SrcAddress, DstAddress, DataLength);
 383:Drivers/STM32F1xx_HAL_Driver/Src/stm32f1xx_hal_dma.c ****     
 384:Drivers/STM32F1xx_HAL_Driver/Src/stm32f1xx_hal_dma.c ****     /* Enable the transfer complete interrupt */
 385:Drivers/STM32F1xx_HAL_Driver/Src/stm32f1xx_hal_dma.c ****     /* Enable the transfer Error interrupt */
 386:Drivers/STM32F1xx_HAL_Driver/Src/stm32f1xx_hal_dma.c ****     if(NULL != hdma->XferHalfCpltCallback)
 387:Drivers/STM32F1xx_HAL_Driver/Src/stm32f1xx_hal_dma.c ****     {
 388:Drivers/STM32F1xx_HAL_Driver/Src/stm32f1xx_hal_dma.c ****       /* Enable the Half transfer complete interrupt as well */
 389:Drivers/STM32F1xx_HAL_Driver/Src/stm32f1xx_hal_dma.c ****       __HAL_DMA_ENABLE_IT(hdma, (DMA_IT_TC | DMA_IT_HT | DMA_IT_TE));
 390:Drivers/STM32F1xx_HAL_Driver/Src/stm32f1xx_hal_dma.c ****     }
 391:Drivers/STM32F1xx_HAL_Driver/Src/stm32f1xx_hal_dma.c ****     else
 392:Drivers/STM32F1xx_HAL_Driver/Src/stm32f1xx_hal_dma.c ****     {
 393:Drivers/STM32F1xx_HAL_Driver/Src/stm32f1xx_hal_dma.c ****       __HAL_DMA_DISABLE_IT(hdma, DMA_IT_HT);
 394:Drivers/STM32F1xx_HAL_Driver/Src/stm32f1xx_hal_dma.c ****       __HAL_DMA_ENABLE_IT(hdma, (DMA_IT_TC | DMA_IT_TE));
 395:Drivers/STM32F1xx_HAL_Driver/Src/stm32f1xx_hal_dma.c ****     }
 396:Drivers/STM32F1xx_HAL_Driver/Src/stm32f1xx_hal_dma.c ****     /* Enable the Peripheral */
 397:Drivers/STM32F1xx_HAL_Driver/Src/stm32f1xx_hal_dma.c ****     __HAL_DMA_ENABLE(hdma);
 398:Drivers/STM32F1xx_HAL_Driver/Src/stm32f1xx_hal_dma.c ****   }
 399:Drivers/STM32F1xx_HAL_Driver/Src/stm32f1xx_hal_dma.c ****   else
 400:Drivers/STM32F1xx_HAL_Driver/Src/stm32f1xx_hal_dma.c ****   {      
 401:Drivers/STM32F1xx_HAL_Driver/Src/stm32f1xx_hal_dma.c ****     /* Process Unlocked */
 402:Drivers/STM32F1xx_HAL_Driver/Src/stm32f1xx_hal_dma.c ****     __HAL_UNLOCK(hdma); 
 403:Drivers/STM32F1xx_HAL_Driver/Src/stm32f1xx_hal_dma.c **** 
 404:Drivers/STM32F1xx_HAL_Driver/Src/stm32f1xx_hal_dma.c ****     /* Remain BUSY */
 405:Drivers/STM32F1xx_HAL_Driver/Src/stm32f1xx_hal_dma.c ****     status = HAL_BUSY;
 406:Drivers/STM32F1xx_HAL_Driver/Src/stm32f1xx_hal_dma.c ****   }    
 407:Drivers/STM32F1xx_HAL_Driver/Src/stm32f1xx_hal_dma.c ****   return status;
 408:Drivers/STM32F1xx_HAL_Driver/Src/stm32f1xx_hal_dma.c **** }
 409:Drivers/STM32F1xx_HAL_Driver/Src/stm32f1xx_hal_dma.c **** 
 410:Drivers/STM32F1xx_HAL_Driver/Src/stm32f1xx_hal_dma.c **** /**
 411:Drivers/STM32F1xx_HAL_Driver/Src/stm32f1xx_hal_dma.c ****   * @brief  Abort the DMA Transfer.
 412:Drivers/STM32F1xx_HAL_Driver/Src/stm32f1xx_hal_dma.c ****   * @param  hdma: pointer to a DMA_HandleTypeDef structure that contains
 413:Drivers/STM32F1xx_HAL_Driver/Src/stm32f1xx_hal_dma.c ****   *               the configuration information for the specified DMA Channel.
 414:Drivers/STM32F1xx_HAL_Driver/Src/stm32f1xx_hal_dma.c ****   * @retval HAL status
 415:Drivers/STM32F1xx_HAL_Driver/Src/stm32f1xx_hal_dma.c ****   */
 416:Drivers/STM32F1xx_HAL_Driver/Src/stm32f1xx_hal_dma.c **** HAL_StatusTypeDef HAL_DMA_Abort(DMA_HandleTypeDef *hdma)
 417:Drivers/STM32F1xx_HAL_Driver/Src/stm32f1xx_hal_dma.c **** {
 418:Drivers/STM32F1xx_HAL_Driver/Src/stm32f1xx_hal_dma.c ****   HAL_StatusTypeDef status = HAL_OK;
 419:Drivers/STM32F1xx_HAL_Driver/Src/stm32f1xx_hal_dma.c ****   
 420:Drivers/STM32F1xx_HAL_Driver/Src/stm32f1xx_hal_dma.c ****   if(hdma->State != HAL_DMA_STATE_BUSY)
 421:Drivers/STM32F1xx_HAL_Driver/Src/stm32f1xx_hal_dma.c ****   {
 422:Drivers/STM32F1xx_HAL_Driver/Src/stm32f1xx_hal_dma.c ****     /* no transfer ongoing */
 423:Drivers/STM32F1xx_HAL_Driver/Src/stm32f1xx_hal_dma.c ****     hdma->ErrorCode = HAL_DMA_ERROR_NO_XFER;
 424:Drivers/STM32F1xx_HAL_Driver/Src/stm32f1xx_hal_dma.c ****     
 425:Drivers/STM32F1xx_HAL_Driver/Src/stm32f1xx_hal_dma.c ****     /* Process Unlocked */
 426:Drivers/STM32F1xx_HAL_Driver/Src/stm32f1xx_hal_dma.c ****     __HAL_UNLOCK(hdma);
 427:Drivers/STM32F1xx_HAL_Driver/Src/stm32f1xx_hal_dma.c ****     
 428:Drivers/STM32F1xx_HAL_Driver/Src/stm32f1xx_hal_dma.c ****     return HAL_ERROR;
 429:Drivers/STM32F1xx_HAL_Driver/Src/stm32f1xx_hal_dma.c ****   }
 430:Drivers/STM32F1xx_HAL_Driver/Src/stm32f1xx_hal_dma.c ****   else
 431:Drivers/STM32F1xx_HAL_Driver/Src/stm32f1xx_hal_dma.c **** 
 432:Drivers/STM32F1xx_HAL_Driver/Src/stm32f1xx_hal_dma.c ****   {
 433:Drivers/STM32F1xx_HAL_Driver/Src/stm32f1xx_hal_dma.c ****     /* Disable DMA IT */
ARM GAS  /tmp/ccFYW4Uk.s 			page 9


 434:Drivers/STM32F1xx_HAL_Driver/Src/stm32f1xx_hal_dma.c ****     __HAL_DMA_DISABLE_IT(hdma, (DMA_IT_TC | DMA_IT_HT | DMA_IT_TE));
 435:Drivers/STM32F1xx_HAL_Driver/Src/stm32f1xx_hal_dma.c ****       
 436:Drivers/STM32F1xx_HAL_Driver/Src/stm32f1xx_hal_dma.c ****     /* Disable the channel */
 437:Drivers/STM32F1xx_HAL_Driver/Src/stm32f1xx_hal_dma.c ****     __HAL_DMA_DISABLE(hdma);
 438:Drivers/STM32F1xx_HAL_Driver/Src/stm32f1xx_hal_dma.c ****       
 439:Drivers/STM32F1xx_HAL_Driver/Src/stm32f1xx_hal_dma.c ****     /* Clear all flags */
 440:Drivers/STM32F1xx_HAL_Driver/Src/stm32f1xx_hal_dma.c ****     hdma->DmaBaseAddress->IFCR = (DMA_ISR_GIF1 << hdma->ChannelIndex);
 441:Drivers/STM32F1xx_HAL_Driver/Src/stm32f1xx_hal_dma.c ****   }
 442:Drivers/STM32F1xx_HAL_Driver/Src/stm32f1xx_hal_dma.c ****   /* Change the DMA state */
 443:Drivers/STM32F1xx_HAL_Driver/Src/stm32f1xx_hal_dma.c ****   hdma->State = HAL_DMA_STATE_READY;
 444:Drivers/STM32F1xx_HAL_Driver/Src/stm32f1xx_hal_dma.c **** 
 445:Drivers/STM32F1xx_HAL_Driver/Src/stm32f1xx_hal_dma.c ****   /* Process Unlocked */
 446:Drivers/STM32F1xx_HAL_Driver/Src/stm32f1xx_hal_dma.c ****   __HAL_UNLOCK(hdma);      
 447:Drivers/STM32F1xx_HAL_Driver/Src/stm32f1xx_hal_dma.c ****   
 448:Drivers/STM32F1xx_HAL_Driver/Src/stm32f1xx_hal_dma.c ****   return status; 
 449:Drivers/STM32F1xx_HAL_Driver/Src/stm32f1xx_hal_dma.c **** }
 450:Drivers/STM32F1xx_HAL_Driver/Src/stm32f1xx_hal_dma.c **** 
 451:Drivers/STM32F1xx_HAL_Driver/Src/stm32f1xx_hal_dma.c **** /**
 452:Drivers/STM32F1xx_HAL_Driver/Src/stm32f1xx_hal_dma.c ****   * @brief  Aborts the DMA Transfer in Interrupt mode.
 453:Drivers/STM32F1xx_HAL_Driver/Src/stm32f1xx_hal_dma.c ****   * @param  hdma  : pointer to a DMA_HandleTypeDef structure that contains
 454:Drivers/STM32F1xx_HAL_Driver/Src/stm32f1xx_hal_dma.c ****   *                 the configuration information for the specified DMA Channel.
 455:Drivers/STM32F1xx_HAL_Driver/Src/stm32f1xx_hal_dma.c ****   * @retval HAL status
 456:Drivers/STM32F1xx_HAL_Driver/Src/stm32f1xx_hal_dma.c ****   */
 457:Drivers/STM32F1xx_HAL_Driver/Src/stm32f1xx_hal_dma.c **** HAL_StatusTypeDef HAL_DMA_Abort_IT(DMA_HandleTypeDef *hdma)
 458:Drivers/STM32F1xx_HAL_Driver/Src/stm32f1xx_hal_dma.c **** {  
 459:Drivers/STM32F1xx_HAL_Driver/Src/stm32f1xx_hal_dma.c ****   HAL_StatusTypeDef status = HAL_OK;
 460:Drivers/STM32F1xx_HAL_Driver/Src/stm32f1xx_hal_dma.c ****   
 461:Drivers/STM32F1xx_HAL_Driver/Src/stm32f1xx_hal_dma.c ****   if(HAL_DMA_STATE_BUSY != hdma->State)
 462:Drivers/STM32F1xx_HAL_Driver/Src/stm32f1xx_hal_dma.c ****   {
 463:Drivers/STM32F1xx_HAL_Driver/Src/stm32f1xx_hal_dma.c ****     /* no transfer ongoing */
 464:Drivers/STM32F1xx_HAL_Driver/Src/stm32f1xx_hal_dma.c ****     hdma->ErrorCode = HAL_DMA_ERROR_NO_XFER;
 465:Drivers/STM32F1xx_HAL_Driver/Src/stm32f1xx_hal_dma.c ****         
 466:Drivers/STM32F1xx_HAL_Driver/Src/stm32f1xx_hal_dma.c ****     status = HAL_ERROR;
 467:Drivers/STM32F1xx_HAL_Driver/Src/stm32f1xx_hal_dma.c ****   }
 468:Drivers/STM32F1xx_HAL_Driver/Src/stm32f1xx_hal_dma.c ****   else
 469:Drivers/STM32F1xx_HAL_Driver/Src/stm32f1xx_hal_dma.c ****   { 
 470:Drivers/STM32F1xx_HAL_Driver/Src/stm32f1xx_hal_dma.c ****     /* Disable DMA IT */
 471:Drivers/STM32F1xx_HAL_Driver/Src/stm32f1xx_hal_dma.c ****     __HAL_DMA_DISABLE_IT(hdma, (DMA_IT_TC | DMA_IT_HT | DMA_IT_TE));
 472:Drivers/STM32F1xx_HAL_Driver/Src/stm32f1xx_hal_dma.c **** 
 473:Drivers/STM32F1xx_HAL_Driver/Src/stm32f1xx_hal_dma.c ****     /* Disable the channel */
 474:Drivers/STM32F1xx_HAL_Driver/Src/stm32f1xx_hal_dma.c ****     __HAL_DMA_DISABLE(hdma);
 475:Drivers/STM32F1xx_HAL_Driver/Src/stm32f1xx_hal_dma.c **** 
 476:Drivers/STM32F1xx_HAL_Driver/Src/stm32f1xx_hal_dma.c ****     /* Clear all flags */
 477:Drivers/STM32F1xx_HAL_Driver/Src/stm32f1xx_hal_dma.c ****     __HAL_DMA_CLEAR_FLAG(hdma, __HAL_DMA_GET_GI_FLAG_INDEX(hdma));
 478:Drivers/STM32F1xx_HAL_Driver/Src/stm32f1xx_hal_dma.c **** 
 479:Drivers/STM32F1xx_HAL_Driver/Src/stm32f1xx_hal_dma.c ****     /* Change the DMA state */
 480:Drivers/STM32F1xx_HAL_Driver/Src/stm32f1xx_hal_dma.c ****     hdma->State = HAL_DMA_STATE_READY;
 481:Drivers/STM32F1xx_HAL_Driver/Src/stm32f1xx_hal_dma.c **** 
 482:Drivers/STM32F1xx_HAL_Driver/Src/stm32f1xx_hal_dma.c ****     /* Process Unlocked */
 483:Drivers/STM32F1xx_HAL_Driver/Src/stm32f1xx_hal_dma.c ****     __HAL_UNLOCK(hdma);
 484:Drivers/STM32F1xx_HAL_Driver/Src/stm32f1xx_hal_dma.c **** 
 485:Drivers/STM32F1xx_HAL_Driver/Src/stm32f1xx_hal_dma.c ****     /* Call User Abort callback */
 486:Drivers/STM32F1xx_HAL_Driver/Src/stm32f1xx_hal_dma.c ****     if(hdma->XferAbortCallback != NULL)
 487:Drivers/STM32F1xx_HAL_Driver/Src/stm32f1xx_hal_dma.c ****     {
 488:Drivers/STM32F1xx_HAL_Driver/Src/stm32f1xx_hal_dma.c ****       hdma->XferAbortCallback(hdma);
 489:Drivers/STM32F1xx_HAL_Driver/Src/stm32f1xx_hal_dma.c ****     } 
 490:Drivers/STM32F1xx_HAL_Driver/Src/stm32f1xx_hal_dma.c ****   }
ARM GAS  /tmp/ccFYW4Uk.s 			page 10


 491:Drivers/STM32F1xx_HAL_Driver/Src/stm32f1xx_hal_dma.c ****   return status;
 492:Drivers/STM32F1xx_HAL_Driver/Src/stm32f1xx_hal_dma.c **** }
 493:Drivers/STM32F1xx_HAL_Driver/Src/stm32f1xx_hal_dma.c **** 
 494:Drivers/STM32F1xx_HAL_Driver/Src/stm32f1xx_hal_dma.c **** /**
 495:Drivers/STM32F1xx_HAL_Driver/Src/stm32f1xx_hal_dma.c ****   * @brief  Polling for transfer complete.
 496:Drivers/STM32F1xx_HAL_Driver/Src/stm32f1xx_hal_dma.c ****   * @param  hdma:    pointer to a DMA_HandleTypeDef structure that contains
 497:Drivers/STM32F1xx_HAL_Driver/Src/stm32f1xx_hal_dma.c ****   *                  the configuration information for the specified DMA Channel.
 498:Drivers/STM32F1xx_HAL_Driver/Src/stm32f1xx_hal_dma.c ****   * @param  CompleteLevel: Specifies the DMA level complete.
 499:Drivers/STM32F1xx_HAL_Driver/Src/stm32f1xx_hal_dma.c ****   * @param  Timeout:       Timeout duration.
 500:Drivers/STM32F1xx_HAL_Driver/Src/stm32f1xx_hal_dma.c ****   * @retval HAL status
 501:Drivers/STM32F1xx_HAL_Driver/Src/stm32f1xx_hal_dma.c ****   */
 502:Drivers/STM32F1xx_HAL_Driver/Src/stm32f1xx_hal_dma.c **** HAL_StatusTypeDef HAL_DMA_PollForTransfer(DMA_HandleTypeDef *hdma, uint32_t CompleteLevel, uint32_t
 503:Drivers/STM32F1xx_HAL_Driver/Src/stm32f1xx_hal_dma.c **** {
 504:Drivers/STM32F1xx_HAL_Driver/Src/stm32f1xx_hal_dma.c ****   uint32_t temp;
 505:Drivers/STM32F1xx_HAL_Driver/Src/stm32f1xx_hal_dma.c ****   uint32_t tickstart = 0U;
 506:Drivers/STM32F1xx_HAL_Driver/Src/stm32f1xx_hal_dma.c **** 
 507:Drivers/STM32F1xx_HAL_Driver/Src/stm32f1xx_hal_dma.c ****   if(HAL_DMA_STATE_BUSY != hdma->State)
 508:Drivers/STM32F1xx_HAL_Driver/Src/stm32f1xx_hal_dma.c ****   {
 509:Drivers/STM32F1xx_HAL_Driver/Src/stm32f1xx_hal_dma.c ****     /* no transfer ongoing */
 510:Drivers/STM32F1xx_HAL_Driver/Src/stm32f1xx_hal_dma.c ****     hdma->ErrorCode = HAL_DMA_ERROR_NO_XFER;
 511:Drivers/STM32F1xx_HAL_Driver/Src/stm32f1xx_hal_dma.c ****     __HAL_UNLOCK(hdma);
 512:Drivers/STM32F1xx_HAL_Driver/Src/stm32f1xx_hal_dma.c ****     return HAL_ERROR;
 513:Drivers/STM32F1xx_HAL_Driver/Src/stm32f1xx_hal_dma.c ****   }
 514:Drivers/STM32F1xx_HAL_Driver/Src/stm32f1xx_hal_dma.c **** 
 515:Drivers/STM32F1xx_HAL_Driver/Src/stm32f1xx_hal_dma.c ****   /* Polling mode not supported in circular mode */
 516:Drivers/STM32F1xx_HAL_Driver/Src/stm32f1xx_hal_dma.c ****   if (RESET != (hdma->Instance->CCR & DMA_CCR_CIRC))
 517:Drivers/STM32F1xx_HAL_Driver/Src/stm32f1xx_hal_dma.c ****   {
 518:Drivers/STM32F1xx_HAL_Driver/Src/stm32f1xx_hal_dma.c ****     hdma->ErrorCode = HAL_DMA_ERROR_NOT_SUPPORTED;
 519:Drivers/STM32F1xx_HAL_Driver/Src/stm32f1xx_hal_dma.c ****     return HAL_ERROR;
 520:Drivers/STM32F1xx_HAL_Driver/Src/stm32f1xx_hal_dma.c ****   }
 521:Drivers/STM32F1xx_HAL_Driver/Src/stm32f1xx_hal_dma.c ****   
 522:Drivers/STM32F1xx_HAL_Driver/Src/stm32f1xx_hal_dma.c ****   /* Get the level transfer complete flag */
 523:Drivers/STM32F1xx_HAL_Driver/Src/stm32f1xx_hal_dma.c ****   if(CompleteLevel == HAL_DMA_FULL_TRANSFER)
 524:Drivers/STM32F1xx_HAL_Driver/Src/stm32f1xx_hal_dma.c ****   {
 525:Drivers/STM32F1xx_HAL_Driver/Src/stm32f1xx_hal_dma.c ****     /* Transfer Complete flag */
 526:Drivers/STM32F1xx_HAL_Driver/Src/stm32f1xx_hal_dma.c ****     temp = __HAL_DMA_GET_TC_FLAG_INDEX(hdma);
 527:Drivers/STM32F1xx_HAL_Driver/Src/stm32f1xx_hal_dma.c ****   }
 528:Drivers/STM32F1xx_HAL_Driver/Src/stm32f1xx_hal_dma.c ****   else
 529:Drivers/STM32F1xx_HAL_Driver/Src/stm32f1xx_hal_dma.c ****   {
 530:Drivers/STM32F1xx_HAL_Driver/Src/stm32f1xx_hal_dma.c ****     /* Half Transfer Complete flag */
 531:Drivers/STM32F1xx_HAL_Driver/Src/stm32f1xx_hal_dma.c ****     temp = __HAL_DMA_GET_HT_FLAG_INDEX(hdma);
 532:Drivers/STM32F1xx_HAL_Driver/Src/stm32f1xx_hal_dma.c ****   }
 533:Drivers/STM32F1xx_HAL_Driver/Src/stm32f1xx_hal_dma.c **** 
 534:Drivers/STM32F1xx_HAL_Driver/Src/stm32f1xx_hal_dma.c ****   /* Get tick */
 535:Drivers/STM32F1xx_HAL_Driver/Src/stm32f1xx_hal_dma.c ****   tickstart = HAL_GetTick();
 536:Drivers/STM32F1xx_HAL_Driver/Src/stm32f1xx_hal_dma.c **** 
 537:Drivers/STM32F1xx_HAL_Driver/Src/stm32f1xx_hal_dma.c ****   while(__HAL_DMA_GET_FLAG(hdma, temp) == RESET)
 538:Drivers/STM32F1xx_HAL_Driver/Src/stm32f1xx_hal_dma.c ****   {
 539:Drivers/STM32F1xx_HAL_Driver/Src/stm32f1xx_hal_dma.c ****     if((__HAL_DMA_GET_FLAG(hdma, __HAL_DMA_GET_TE_FLAG_INDEX(hdma)) != RESET))
 540:Drivers/STM32F1xx_HAL_Driver/Src/stm32f1xx_hal_dma.c ****     {
 541:Drivers/STM32F1xx_HAL_Driver/Src/stm32f1xx_hal_dma.c ****       /* When a DMA transfer error occurs */
 542:Drivers/STM32F1xx_HAL_Driver/Src/stm32f1xx_hal_dma.c ****       /* A hardware clear of its EN bits is performed */
 543:Drivers/STM32F1xx_HAL_Driver/Src/stm32f1xx_hal_dma.c ****       /* Clear all flags */
 544:Drivers/STM32F1xx_HAL_Driver/Src/stm32f1xx_hal_dma.c ****       hdma->DmaBaseAddress->IFCR = (DMA_ISR_GIF1 << hdma->ChannelIndex);
 545:Drivers/STM32F1xx_HAL_Driver/Src/stm32f1xx_hal_dma.c **** 
 546:Drivers/STM32F1xx_HAL_Driver/Src/stm32f1xx_hal_dma.c ****       /* Update error code */
 547:Drivers/STM32F1xx_HAL_Driver/Src/stm32f1xx_hal_dma.c ****       SET_BIT(hdma->ErrorCode, HAL_DMA_ERROR_TE);
ARM GAS  /tmp/ccFYW4Uk.s 			page 11


 548:Drivers/STM32F1xx_HAL_Driver/Src/stm32f1xx_hal_dma.c **** 
 549:Drivers/STM32F1xx_HAL_Driver/Src/stm32f1xx_hal_dma.c ****       /* Change the DMA state */
 550:Drivers/STM32F1xx_HAL_Driver/Src/stm32f1xx_hal_dma.c ****       hdma->State= HAL_DMA_STATE_READY;
 551:Drivers/STM32F1xx_HAL_Driver/Src/stm32f1xx_hal_dma.c **** 
 552:Drivers/STM32F1xx_HAL_Driver/Src/stm32f1xx_hal_dma.c ****       /* Process Unlocked */
 553:Drivers/STM32F1xx_HAL_Driver/Src/stm32f1xx_hal_dma.c ****       __HAL_UNLOCK(hdma);
 554:Drivers/STM32F1xx_HAL_Driver/Src/stm32f1xx_hal_dma.c **** 
 555:Drivers/STM32F1xx_HAL_Driver/Src/stm32f1xx_hal_dma.c ****       return HAL_ERROR;
 556:Drivers/STM32F1xx_HAL_Driver/Src/stm32f1xx_hal_dma.c ****     }
 557:Drivers/STM32F1xx_HAL_Driver/Src/stm32f1xx_hal_dma.c ****     /* Check for the Timeout */
 558:Drivers/STM32F1xx_HAL_Driver/Src/stm32f1xx_hal_dma.c ****     if(Timeout != HAL_MAX_DELAY)
 559:Drivers/STM32F1xx_HAL_Driver/Src/stm32f1xx_hal_dma.c ****     {
 560:Drivers/STM32F1xx_HAL_Driver/Src/stm32f1xx_hal_dma.c ****       if((Timeout == 0U) || ((HAL_GetTick() - tickstart) > Timeout))
 561:Drivers/STM32F1xx_HAL_Driver/Src/stm32f1xx_hal_dma.c ****       {
 562:Drivers/STM32F1xx_HAL_Driver/Src/stm32f1xx_hal_dma.c ****         /* Update error code */
 563:Drivers/STM32F1xx_HAL_Driver/Src/stm32f1xx_hal_dma.c ****         SET_BIT(hdma->ErrorCode, HAL_DMA_ERROR_TIMEOUT);
 564:Drivers/STM32F1xx_HAL_Driver/Src/stm32f1xx_hal_dma.c **** 
 565:Drivers/STM32F1xx_HAL_Driver/Src/stm32f1xx_hal_dma.c ****         /* Change the DMA state */
 566:Drivers/STM32F1xx_HAL_Driver/Src/stm32f1xx_hal_dma.c ****         hdma->State = HAL_DMA_STATE_READY;
 567:Drivers/STM32F1xx_HAL_Driver/Src/stm32f1xx_hal_dma.c **** 
 568:Drivers/STM32F1xx_HAL_Driver/Src/stm32f1xx_hal_dma.c ****         /* Process Unlocked */
 569:Drivers/STM32F1xx_HAL_Driver/Src/stm32f1xx_hal_dma.c ****         __HAL_UNLOCK(hdma);
 570:Drivers/STM32F1xx_HAL_Driver/Src/stm32f1xx_hal_dma.c **** 
 571:Drivers/STM32F1xx_HAL_Driver/Src/stm32f1xx_hal_dma.c ****         return HAL_ERROR;
 572:Drivers/STM32F1xx_HAL_Driver/Src/stm32f1xx_hal_dma.c ****       }
 573:Drivers/STM32F1xx_HAL_Driver/Src/stm32f1xx_hal_dma.c ****     }
 574:Drivers/STM32F1xx_HAL_Driver/Src/stm32f1xx_hal_dma.c ****   }
 575:Drivers/STM32F1xx_HAL_Driver/Src/stm32f1xx_hal_dma.c **** 
 576:Drivers/STM32F1xx_HAL_Driver/Src/stm32f1xx_hal_dma.c ****   if(CompleteLevel == HAL_DMA_FULL_TRANSFER)
 577:Drivers/STM32F1xx_HAL_Driver/Src/stm32f1xx_hal_dma.c ****   {
 578:Drivers/STM32F1xx_HAL_Driver/Src/stm32f1xx_hal_dma.c ****     /* Clear the transfer complete flag */
 579:Drivers/STM32F1xx_HAL_Driver/Src/stm32f1xx_hal_dma.c ****     __HAL_DMA_CLEAR_FLAG(hdma, __HAL_DMA_GET_TC_FLAG_INDEX(hdma));
 580:Drivers/STM32F1xx_HAL_Driver/Src/stm32f1xx_hal_dma.c **** 
 581:Drivers/STM32F1xx_HAL_Driver/Src/stm32f1xx_hal_dma.c ****     /* The selected Channelx EN bit is cleared (DMA is disabled and
 582:Drivers/STM32F1xx_HAL_Driver/Src/stm32f1xx_hal_dma.c ****     all transfers are complete) */
 583:Drivers/STM32F1xx_HAL_Driver/Src/stm32f1xx_hal_dma.c ****     hdma->State = HAL_DMA_STATE_READY;
 584:Drivers/STM32F1xx_HAL_Driver/Src/stm32f1xx_hal_dma.c ****   }
 585:Drivers/STM32F1xx_HAL_Driver/Src/stm32f1xx_hal_dma.c ****   else
 586:Drivers/STM32F1xx_HAL_Driver/Src/stm32f1xx_hal_dma.c ****   {
 587:Drivers/STM32F1xx_HAL_Driver/Src/stm32f1xx_hal_dma.c ****     /* Clear the half transfer complete flag */
 588:Drivers/STM32F1xx_HAL_Driver/Src/stm32f1xx_hal_dma.c ****     __HAL_DMA_CLEAR_FLAG(hdma, __HAL_DMA_GET_HT_FLAG_INDEX(hdma));
 589:Drivers/STM32F1xx_HAL_Driver/Src/stm32f1xx_hal_dma.c ****   }
 590:Drivers/STM32F1xx_HAL_Driver/Src/stm32f1xx_hal_dma.c ****   
 591:Drivers/STM32F1xx_HAL_Driver/Src/stm32f1xx_hal_dma.c ****   /* Process unlocked */
 592:Drivers/STM32F1xx_HAL_Driver/Src/stm32f1xx_hal_dma.c ****   __HAL_UNLOCK(hdma);
 593:Drivers/STM32F1xx_HAL_Driver/Src/stm32f1xx_hal_dma.c **** 
 594:Drivers/STM32F1xx_HAL_Driver/Src/stm32f1xx_hal_dma.c ****   return HAL_OK;
 595:Drivers/STM32F1xx_HAL_Driver/Src/stm32f1xx_hal_dma.c **** }
 596:Drivers/STM32F1xx_HAL_Driver/Src/stm32f1xx_hal_dma.c **** 
 597:Drivers/STM32F1xx_HAL_Driver/Src/stm32f1xx_hal_dma.c **** /**
 598:Drivers/STM32F1xx_HAL_Driver/Src/stm32f1xx_hal_dma.c ****   * @brief  Handles DMA interrupt request.
 599:Drivers/STM32F1xx_HAL_Driver/Src/stm32f1xx_hal_dma.c ****   * @param  hdma: pointer to a DMA_HandleTypeDef structure that contains
 600:Drivers/STM32F1xx_HAL_Driver/Src/stm32f1xx_hal_dma.c ****   *               the configuration information for the specified DMA Channel.  
 601:Drivers/STM32F1xx_HAL_Driver/Src/stm32f1xx_hal_dma.c ****   * @retval None
 602:Drivers/STM32F1xx_HAL_Driver/Src/stm32f1xx_hal_dma.c ****   */
 603:Drivers/STM32F1xx_HAL_Driver/Src/stm32f1xx_hal_dma.c **** void HAL_DMA_IRQHandler(DMA_HandleTypeDef *hdma)
 604:Drivers/STM32F1xx_HAL_Driver/Src/stm32f1xx_hal_dma.c **** {
ARM GAS  /tmp/ccFYW4Uk.s 			page 12


 605:Drivers/STM32F1xx_HAL_Driver/Src/stm32f1xx_hal_dma.c ****   uint32_t flag_it = hdma->DmaBaseAddress->ISR;
 606:Drivers/STM32F1xx_HAL_Driver/Src/stm32f1xx_hal_dma.c ****   uint32_t source_it = hdma->Instance->CCR;
 607:Drivers/STM32F1xx_HAL_Driver/Src/stm32f1xx_hal_dma.c ****   
 608:Drivers/STM32F1xx_HAL_Driver/Src/stm32f1xx_hal_dma.c ****   /* Half Transfer Complete Interrupt management ******************************/
 609:Drivers/STM32F1xx_HAL_Driver/Src/stm32f1xx_hal_dma.c ****   if (((flag_it & (DMA_FLAG_HT1 << hdma->ChannelIndex)) != RESET) && ((source_it & DMA_IT_HT) != RE
 610:Drivers/STM32F1xx_HAL_Driver/Src/stm32f1xx_hal_dma.c ****   {
 611:Drivers/STM32F1xx_HAL_Driver/Src/stm32f1xx_hal_dma.c ****     /* Disable the half transfer interrupt if the DMA mode is not CIRCULAR */
 612:Drivers/STM32F1xx_HAL_Driver/Src/stm32f1xx_hal_dma.c ****     if((hdma->Instance->CCR & DMA_CCR_CIRC) == 0U)
 613:Drivers/STM32F1xx_HAL_Driver/Src/stm32f1xx_hal_dma.c ****     {
 614:Drivers/STM32F1xx_HAL_Driver/Src/stm32f1xx_hal_dma.c ****       /* Disable the half transfer interrupt */
 615:Drivers/STM32F1xx_HAL_Driver/Src/stm32f1xx_hal_dma.c ****       __HAL_DMA_DISABLE_IT(hdma, DMA_IT_HT);
 616:Drivers/STM32F1xx_HAL_Driver/Src/stm32f1xx_hal_dma.c ****     }
 617:Drivers/STM32F1xx_HAL_Driver/Src/stm32f1xx_hal_dma.c ****     /* Clear the half transfer complete flag */
 618:Drivers/STM32F1xx_HAL_Driver/Src/stm32f1xx_hal_dma.c ****     __HAL_DMA_CLEAR_FLAG(hdma, __HAL_DMA_GET_HT_FLAG_INDEX(hdma));
 619:Drivers/STM32F1xx_HAL_Driver/Src/stm32f1xx_hal_dma.c **** 
 620:Drivers/STM32F1xx_HAL_Driver/Src/stm32f1xx_hal_dma.c ****     /* DMA peripheral state is not updated in Half Transfer */
 621:Drivers/STM32F1xx_HAL_Driver/Src/stm32f1xx_hal_dma.c ****     /* but in Transfer Complete case */
 622:Drivers/STM32F1xx_HAL_Driver/Src/stm32f1xx_hal_dma.c **** 
 623:Drivers/STM32F1xx_HAL_Driver/Src/stm32f1xx_hal_dma.c ****     if(hdma->XferHalfCpltCallback != NULL)
 624:Drivers/STM32F1xx_HAL_Driver/Src/stm32f1xx_hal_dma.c ****     {
 625:Drivers/STM32F1xx_HAL_Driver/Src/stm32f1xx_hal_dma.c ****       /* Half transfer callback */
 626:Drivers/STM32F1xx_HAL_Driver/Src/stm32f1xx_hal_dma.c ****       hdma->XferHalfCpltCallback(hdma);
 627:Drivers/STM32F1xx_HAL_Driver/Src/stm32f1xx_hal_dma.c ****     }
 628:Drivers/STM32F1xx_HAL_Driver/Src/stm32f1xx_hal_dma.c ****   }
 629:Drivers/STM32F1xx_HAL_Driver/Src/stm32f1xx_hal_dma.c **** 
 630:Drivers/STM32F1xx_HAL_Driver/Src/stm32f1xx_hal_dma.c ****   /* Transfer Complete Interrupt management ***********************************/
 631:Drivers/STM32F1xx_HAL_Driver/Src/stm32f1xx_hal_dma.c ****   else if (((flag_it & (DMA_FLAG_TC1 << hdma->ChannelIndex)) != RESET) && ((source_it & DMA_IT_TC) 
 632:Drivers/STM32F1xx_HAL_Driver/Src/stm32f1xx_hal_dma.c ****   {
 633:Drivers/STM32F1xx_HAL_Driver/Src/stm32f1xx_hal_dma.c ****     if((hdma->Instance->CCR & DMA_CCR_CIRC) == 0U)
 634:Drivers/STM32F1xx_HAL_Driver/Src/stm32f1xx_hal_dma.c ****     {
 635:Drivers/STM32F1xx_HAL_Driver/Src/stm32f1xx_hal_dma.c ****       /* Disable the transfer complete and error interrupt */
 636:Drivers/STM32F1xx_HAL_Driver/Src/stm32f1xx_hal_dma.c ****       __HAL_DMA_DISABLE_IT(hdma, DMA_IT_TE | DMA_IT_TC);  
 637:Drivers/STM32F1xx_HAL_Driver/Src/stm32f1xx_hal_dma.c **** 
 638:Drivers/STM32F1xx_HAL_Driver/Src/stm32f1xx_hal_dma.c ****       /* Change the DMA state */
 639:Drivers/STM32F1xx_HAL_Driver/Src/stm32f1xx_hal_dma.c ****       hdma->State = HAL_DMA_STATE_READY;
 640:Drivers/STM32F1xx_HAL_Driver/Src/stm32f1xx_hal_dma.c ****     }
 641:Drivers/STM32F1xx_HAL_Driver/Src/stm32f1xx_hal_dma.c ****     /* Clear the transfer complete flag */
 642:Drivers/STM32F1xx_HAL_Driver/Src/stm32f1xx_hal_dma.c ****       __HAL_DMA_CLEAR_FLAG(hdma, __HAL_DMA_GET_TC_FLAG_INDEX(hdma));
 643:Drivers/STM32F1xx_HAL_Driver/Src/stm32f1xx_hal_dma.c **** 
 644:Drivers/STM32F1xx_HAL_Driver/Src/stm32f1xx_hal_dma.c ****     /* Process Unlocked */
 645:Drivers/STM32F1xx_HAL_Driver/Src/stm32f1xx_hal_dma.c ****     __HAL_UNLOCK(hdma);
 646:Drivers/STM32F1xx_HAL_Driver/Src/stm32f1xx_hal_dma.c **** 
 647:Drivers/STM32F1xx_HAL_Driver/Src/stm32f1xx_hal_dma.c ****     if(hdma->XferCpltCallback != NULL)
 648:Drivers/STM32F1xx_HAL_Driver/Src/stm32f1xx_hal_dma.c ****     {
 649:Drivers/STM32F1xx_HAL_Driver/Src/stm32f1xx_hal_dma.c ****       /* Transfer complete callback */
 650:Drivers/STM32F1xx_HAL_Driver/Src/stm32f1xx_hal_dma.c ****       hdma->XferCpltCallback(hdma);
 651:Drivers/STM32F1xx_HAL_Driver/Src/stm32f1xx_hal_dma.c ****     }
 652:Drivers/STM32F1xx_HAL_Driver/Src/stm32f1xx_hal_dma.c ****   }
 653:Drivers/STM32F1xx_HAL_Driver/Src/stm32f1xx_hal_dma.c **** 
 654:Drivers/STM32F1xx_HAL_Driver/Src/stm32f1xx_hal_dma.c ****   /* Transfer Error Interrupt management **************************************/
 655:Drivers/STM32F1xx_HAL_Driver/Src/stm32f1xx_hal_dma.c ****   else if (( RESET != (flag_it & (DMA_FLAG_TE1 << hdma->ChannelIndex))) && (RESET != (source_it & D
 656:Drivers/STM32F1xx_HAL_Driver/Src/stm32f1xx_hal_dma.c ****   {
 657:Drivers/STM32F1xx_HAL_Driver/Src/stm32f1xx_hal_dma.c ****     /* When a DMA transfer error occurs */
 658:Drivers/STM32F1xx_HAL_Driver/Src/stm32f1xx_hal_dma.c ****     /* A hardware clear of its EN bits is performed */
 659:Drivers/STM32F1xx_HAL_Driver/Src/stm32f1xx_hal_dma.c ****     /* Disable ALL DMA IT */
 660:Drivers/STM32F1xx_HAL_Driver/Src/stm32f1xx_hal_dma.c ****     __HAL_DMA_DISABLE_IT(hdma, (DMA_IT_TC | DMA_IT_HT | DMA_IT_TE));
 661:Drivers/STM32F1xx_HAL_Driver/Src/stm32f1xx_hal_dma.c **** 
ARM GAS  /tmp/ccFYW4Uk.s 			page 13


 662:Drivers/STM32F1xx_HAL_Driver/Src/stm32f1xx_hal_dma.c ****     /* Clear all flags */
 663:Drivers/STM32F1xx_HAL_Driver/Src/stm32f1xx_hal_dma.c ****     hdma->DmaBaseAddress->IFCR = (DMA_ISR_GIF1 << hdma->ChannelIndex);
 664:Drivers/STM32F1xx_HAL_Driver/Src/stm32f1xx_hal_dma.c **** 
 665:Drivers/STM32F1xx_HAL_Driver/Src/stm32f1xx_hal_dma.c ****     /* Update error code */
 666:Drivers/STM32F1xx_HAL_Driver/Src/stm32f1xx_hal_dma.c ****     hdma->ErrorCode = HAL_DMA_ERROR_TE;
 667:Drivers/STM32F1xx_HAL_Driver/Src/stm32f1xx_hal_dma.c **** 
 668:Drivers/STM32F1xx_HAL_Driver/Src/stm32f1xx_hal_dma.c ****     /* Change the DMA state */
 669:Drivers/STM32F1xx_HAL_Driver/Src/stm32f1xx_hal_dma.c ****     hdma->State = HAL_DMA_STATE_READY;
 670:Drivers/STM32F1xx_HAL_Driver/Src/stm32f1xx_hal_dma.c **** 
 671:Drivers/STM32F1xx_HAL_Driver/Src/stm32f1xx_hal_dma.c ****     /* Process Unlocked */
 672:Drivers/STM32F1xx_HAL_Driver/Src/stm32f1xx_hal_dma.c ****     __HAL_UNLOCK(hdma);
 673:Drivers/STM32F1xx_HAL_Driver/Src/stm32f1xx_hal_dma.c **** 
 674:Drivers/STM32F1xx_HAL_Driver/Src/stm32f1xx_hal_dma.c ****     if (hdma->XferErrorCallback != NULL)
 675:Drivers/STM32F1xx_HAL_Driver/Src/stm32f1xx_hal_dma.c ****     {
 676:Drivers/STM32F1xx_HAL_Driver/Src/stm32f1xx_hal_dma.c ****       /* Transfer error callback */
 677:Drivers/STM32F1xx_HAL_Driver/Src/stm32f1xx_hal_dma.c ****       hdma->XferErrorCallback(hdma);
 678:Drivers/STM32F1xx_HAL_Driver/Src/stm32f1xx_hal_dma.c ****     }
 679:Drivers/STM32F1xx_HAL_Driver/Src/stm32f1xx_hal_dma.c ****   }
 680:Drivers/STM32F1xx_HAL_Driver/Src/stm32f1xx_hal_dma.c ****   return;
 681:Drivers/STM32F1xx_HAL_Driver/Src/stm32f1xx_hal_dma.c **** }
 682:Drivers/STM32F1xx_HAL_Driver/Src/stm32f1xx_hal_dma.c **** 
 683:Drivers/STM32F1xx_HAL_Driver/Src/stm32f1xx_hal_dma.c **** /**
 684:Drivers/STM32F1xx_HAL_Driver/Src/stm32f1xx_hal_dma.c ****   * @brief Register callbacks
 685:Drivers/STM32F1xx_HAL_Driver/Src/stm32f1xx_hal_dma.c ****   * @param hdma: pointer to a DMA_HandleTypeDef structure that contains
 686:Drivers/STM32F1xx_HAL_Driver/Src/stm32f1xx_hal_dma.c ****   *              the configuration information for the specified DMA Channel.
 687:Drivers/STM32F1xx_HAL_Driver/Src/stm32f1xx_hal_dma.c ****   * @param CallbackID: User Callback identifer
 688:Drivers/STM32F1xx_HAL_Driver/Src/stm32f1xx_hal_dma.c ****   *                    a HAL_DMA_CallbackIDTypeDef ENUM as parameter.
 689:Drivers/STM32F1xx_HAL_Driver/Src/stm32f1xx_hal_dma.c ****   * @param pCallback: pointer to private callbacsk function which has pointer to 
 690:Drivers/STM32F1xx_HAL_Driver/Src/stm32f1xx_hal_dma.c ****   *                   a DMA_HandleTypeDef structure as parameter.
 691:Drivers/STM32F1xx_HAL_Driver/Src/stm32f1xx_hal_dma.c ****   * @retval HAL status
 692:Drivers/STM32F1xx_HAL_Driver/Src/stm32f1xx_hal_dma.c ****   */                          
 693:Drivers/STM32F1xx_HAL_Driver/Src/stm32f1xx_hal_dma.c **** HAL_StatusTypeDef HAL_DMA_RegisterCallback(DMA_HandleTypeDef *hdma, HAL_DMA_CallbackIDTypeDef Callb
 694:Drivers/STM32F1xx_HAL_Driver/Src/stm32f1xx_hal_dma.c **** {
 695:Drivers/STM32F1xx_HAL_Driver/Src/stm32f1xx_hal_dma.c ****   HAL_StatusTypeDef status = HAL_OK;
 696:Drivers/STM32F1xx_HAL_Driver/Src/stm32f1xx_hal_dma.c ****   
 697:Drivers/STM32F1xx_HAL_Driver/Src/stm32f1xx_hal_dma.c ****   /* Process locked */
 698:Drivers/STM32F1xx_HAL_Driver/Src/stm32f1xx_hal_dma.c ****   __HAL_LOCK(hdma);
 699:Drivers/STM32F1xx_HAL_Driver/Src/stm32f1xx_hal_dma.c ****   
 700:Drivers/STM32F1xx_HAL_Driver/Src/stm32f1xx_hal_dma.c ****   if(HAL_DMA_STATE_READY == hdma->State)
 701:Drivers/STM32F1xx_HAL_Driver/Src/stm32f1xx_hal_dma.c ****   {
 702:Drivers/STM32F1xx_HAL_Driver/Src/stm32f1xx_hal_dma.c ****     switch (CallbackID)
 703:Drivers/STM32F1xx_HAL_Driver/Src/stm32f1xx_hal_dma.c ****     {
 704:Drivers/STM32F1xx_HAL_Driver/Src/stm32f1xx_hal_dma.c ****     case  HAL_DMA_XFER_CPLT_CB_ID:
 705:Drivers/STM32F1xx_HAL_Driver/Src/stm32f1xx_hal_dma.c ****       hdma->XferCpltCallback = pCallback;
 706:Drivers/STM32F1xx_HAL_Driver/Src/stm32f1xx_hal_dma.c ****       break;
 707:Drivers/STM32F1xx_HAL_Driver/Src/stm32f1xx_hal_dma.c ****       
 708:Drivers/STM32F1xx_HAL_Driver/Src/stm32f1xx_hal_dma.c ****     case  HAL_DMA_XFER_HALFCPLT_CB_ID:
 709:Drivers/STM32F1xx_HAL_Driver/Src/stm32f1xx_hal_dma.c ****       hdma->XferHalfCpltCallback = pCallback;
 710:Drivers/STM32F1xx_HAL_Driver/Src/stm32f1xx_hal_dma.c ****       break;         
 711:Drivers/STM32F1xx_HAL_Driver/Src/stm32f1xx_hal_dma.c **** 
 712:Drivers/STM32F1xx_HAL_Driver/Src/stm32f1xx_hal_dma.c ****     case  HAL_DMA_XFER_ERROR_CB_ID:
 713:Drivers/STM32F1xx_HAL_Driver/Src/stm32f1xx_hal_dma.c ****       hdma->XferErrorCallback = pCallback;
 714:Drivers/STM32F1xx_HAL_Driver/Src/stm32f1xx_hal_dma.c ****       break;         
 715:Drivers/STM32F1xx_HAL_Driver/Src/stm32f1xx_hal_dma.c ****       
 716:Drivers/STM32F1xx_HAL_Driver/Src/stm32f1xx_hal_dma.c ****     case  HAL_DMA_XFER_ABORT_CB_ID:
 717:Drivers/STM32F1xx_HAL_Driver/Src/stm32f1xx_hal_dma.c ****       hdma->XferAbortCallback = pCallback;
 718:Drivers/STM32F1xx_HAL_Driver/Src/stm32f1xx_hal_dma.c ****       break; 
ARM GAS  /tmp/ccFYW4Uk.s 			page 14


 719:Drivers/STM32F1xx_HAL_Driver/Src/stm32f1xx_hal_dma.c ****       
 720:Drivers/STM32F1xx_HAL_Driver/Src/stm32f1xx_hal_dma.c ****     default:
 721:Drivers/STM32F1xx_HAL_Driver/Src/stm32f1xx_hal_dma.c ****       status = HAL_ERROR;
 722:Drivers/STM32F1xx_HAL_Driver/Src/stm32f1xx_hal_dma.c ****       break;                                                            
 723:Drivers/STM32F1xx_HAL_Driver/Src/stm32f1xx_hal_dma.c ****     }
 724:Drivers/STM32F1xx_HAL_Driver/Src/stm32f1xx_hal_dma.c ****   }
 725:Drivers/STM32F1xx_HAL_Driver/Src/stm32f1xx_hal_dma.c ****   else
 726:Drivers/STM32F1xx_HAL_Driver/Src/stm32f1xx_hal_dma.c ****   {
 727:Drivers/STM32F1xx_HAL_Driver/Src/stm32f1xx_hal_dma.c ****     status = HAL_ERROR;
 728:Drivers/STM32F1xx_HAL_Driver/Src/stm32f1xx_hal_dma.c ****   } 
 729:Drivers/STM32F1xx_HAL_Driver/Src/stm32f1xx_hal_dma.c ****   
 730:Drivers/STM32F1xx_HAL_Driver/Src/stm32f1xx_hal_dma.c ****   /* Release Lock */
 731:Drivers/STM32F1xx_HAL_Driver/Src/stm32f1xx_hal_dma.c ****   __HAL_UNLOCK(hdma);
 732:Drivers/STM32F1xx_HAL_Driver/Src/stm32f1xx_hal_dma.c ****   
 733:Drivers/STM32F1xx_HAL_Driver/Src/stm32f1xx_hal_dma.c ****   return status;
 734:Drivers/STM32F1xx_HAL_Driver/Src/stm32f1xx_hal_dma.c **** }
 735:Drivers/STM32F1xx_HAL_Driver/Src/stm32f1xx_hal_dma.c **** 
 736:Drivers/STM32F1xx_HAL_Driver/Src/stm32f1xx_hal_dma.c **** /**
 737:Drivers/STM32F1xx_HAL_Driver/Src/stm32f1xx_hal_dma.c ****   * @brief UnRegister callbacks
 738:Drivers/STM32F1xx_HAL_Driver/Src/stm32f1xx_hal_dma.c ****   * @param hdma: pointer to a DMA_HandleTypeDef structure that contains
 739:Drivers/STM32F1xx_HAL_Driver/Src/stm32f1xx_hal_dma.c ****   *              the configuration information for the specified DMA Channel.
 740:Drivers/STM32F1xx_HAL_Driver/Src/stm32f1xx_hal_dma.c ****   * @param CallbackID: User Callback identifer
 741:Drivers/STM32F1xx_HAL_Driver/Src/stm32f1xx_hal_dma.c ****   *                    a HAL_DMA_CallbackIDTypeDef ENUM as parameter.
 742:Drivers/STM32F1xx_HAL_Driver/Src/stm32f1xx_hal_dma.c ****   * @retval HAL status
 743:Drivers/STM32F1xx_HAL_Driver/Src/stm32f1xx_hal_dma.c ****   */              
 744:Drivers/STM32F1xx_HAL_Driver/Src/stm32f1xx_hal_dma.c **** HAL_StatusTypeDef HAL_DMA_UnRegisterCallback(DMA_HandleTypeDef *hdma, HAL_DMA_CallbackIDTypeDef Cal
 745:Drivers/STM32F1xx_HAL_Driver/Src/stm32f1xx_hal_dma.c **** {
 746:Drivers/STM32F1xx_HAL_Driver/Src/stm32f1xx_hal_dma.c ****   HAL_StatusTypeDef status = HAL_OK;
 747:Drivers/STM32F1xx_HAL_Driver/Src/stm32f1xx_hal_dma.c **** 
 748:Drivers/STM32F1xx_HAL_Driver/Src/stm32f1xx_hal_dma.c ****   /* Process locked */
 749:Drivers/STM32F1xx_HAL_Driver/Src/stm32f1xx_hal_dma.c ****   __HAL_LOCK(hdma);
 750:Drivers/STM32F1xx_HAL_Driver/Src/stm32f1xx_hal_dma.c ****   
 751:Drivers/STM32F1xx_HAL_Driver/Src/stm32f1xx_hal_dma.c ****   if(HAL_DMA_STATE_READY == hdma->State)
 752:Drivers/STM32F1xx_HAL_Driver/Src/stm32f1xx_hal_dma.c ****   {
 753:Drivers/STM32F1xx_HAL_Driver/Src/stm32f1xx_hal_dma.c ****     switch (CallbackID)
 754:Drivers/STM32F1xx_HAL_Driver/Src/stm32f1xx_hal_dma.c ****     {
 755:Drivers/STM32F1xx_HAL_Driver/Src/stm32f1xx_hal_dma.c ****     case  HAL_DMA_XFER_CPLT_CB_ID:
 756:Drivers/STM32F1xx_HAL_Driver/Src/stm32f1xx_hal_dma.c ****       hdma->XferCpltCallback = NULL;
 757:Drivers/STM32F1xx_HAL_Driver/Src/stm32f1xx_hal_dma.c ****       break;
 758:Drivers/STM32F1xx_HAL_Driver/Src/stm32f1xx_hal_dma.c **** 
 759:Drivers/STM32F1xx_HAL_Driver/Src/stm32f1xx_hal_dma.c ****     case  HAL_DMA_XFER_HALFCPLT_CB_ID:
 760:Drivers/STM32F1xx_HAL_Driver/Src/stm32f1xx_hal_dma.c ****       hdma->XferHalfCpltCallback = NULL;
 761:Drivers/STM32F1xx_HAL_Driver/Src/stm32f1xx_hal_dma.c ****       break;         
 762:Drivers/STM32F1xx_HAL_Driver/Src/stm32f1xx_hal_dma.c **** 
 763:Drivers/STM32F1xx_HAL_Driver/Src/stm32f1xx_hal_dma.c ****     case  HAL_DMA_XFER_ERROR_CB_ID:
 764:Drivers/STM32F1xx_HAL_Driver/Src/stm32f1xx_hal_dma.c ****       hdma->XferErrorCallback = NULL;
 765:Drivers/STM32F1xx_HAL_Driver/Src/stm32f1xx_hal_dma.c ****       break;         
 766:Drivers/STM32F1xx_HAL_Driver/Src/stm32f1xx_hal_dma.c **** 
 767:Drivers/STM32F1xx_HAL_Driver/Src/stm32f1xx_hal_dma.c ****     case  HAL_DMA_XFER_ABORT_CB_ID:
 768:Drivers/STM32F1xx_HAL_Driver/Src/stm32f1xx_hal_dma.c ****       hdma->XferAbortCallback = NULL;
 769:Drivers/STM32F1xx_HAL_Driver/Src/stm32f1xx_hal_dma.c ****       break; 
 770:Drivers/STM32F1xx_HAL_Driver/Src/stm32f1xx_hal_dma.c **** 
 771:Drivers/STM32F1xx_HAL_Driver/Src/stm32f1xx_hal_dma.c ****     case   HAL_DMA_XFER_ALL_CB_ID:
 772:Drivers/STM32F1xx_HAL_Driver/Src/stm32f1xx_hal_dma.c ****       hdma->XferCpltCallback = NULL;
 773:Drivers/STM32F1xx_HAL_Driver/Src/stm32f1xx_hal_dma.c ****       hdma->XferHalfCpltCallback = NULL;
 774:Drivers/STM32F1xx_HAL_Driver/Src/stm32f1xx_hal_dma.c ****       hdma->XferErrorCallback = NULL;
 775:Drivers/STM32F1xx_HAL_Driver/Src/stm32f1xx_hal_dma.c ****       hdma->XferAbortCallback = NULL;
ARM GAS  /tmp/ccFYW4Uk.s 			page 15


 776:Drivers/STM32F1xx_HAL_Driver/Src/stm32f1xx_hal_dma.c ****       break; 
 777:Drivers/STM32F1xx_HAL_Driver/Src/stm32f1xx_hal_dma.c **** 
 778:Drivers/STM32F1xx_HAL_Driver/Src/stm32f1xx_hal_dma.c ****     default:
 779:Drivers/STM32F1xx_HAL_Driver/Src/stm32f1xx_hal_dma.c ****       status = HAL_ERROR;
 780:Drivers/STM32F1xx_HAL_Driver/Src/stm32f1xx_hal_dma.c ****       break;
 781:Drivers/STM32F1xx_HAL_Driver/Src/stm32f1xx_hal_dma.c ****     }
 782:Drivers/STM32F1xx_HAL_Driver/Src/stm32f1xx_hal_dma.c ****   }
 783:Drivers/STM32F1xx_HAL_Driver/Src/stm32f1xx_hal_dma.c ****   else
 784:Drivers/STM32F1xx_HAL_Driver/Src/stm32f1xx_hal_dma.c ****   {
 785:Drivers/STM32F1xx_HAL_Driver/Src/stm32f1xx_hal_dma.c ****     status = HAL_ERROR;
 786:Drivers/STM32F1xx_HAL_Driver/Src/stm32f1xx_hal_dma.c ****   } 
 787:Drivers/STM32F1xx_HAL_Driver/Src/stm32f1xx_hal_dma.c ****   
 788:Drivers/STM32F1xx_HAL_Driver/Src/stm32f1xx_hal_dma.c ****   /* Release Lock */
 789:Drivers/STM32F1xx_HAL_Driver/Src/stm32f1xx_hal_dma.c ****   __HAL_UNLOCK(hdma);
 790:Drivers/STM32F1xx_HAL_Driver/Src/stm32f1xx_hal_dma.c ****   
 791:Drivers/STM32F1xx_HAL_Driver/Src/stm32f1xx_hal_dma.c ****   return status;
 792:Drivers/STM32F1xx_HAL_Driver/Src/stm32f1xx_hal_dma.c **** }
 793:Drivers/STM32F1xx_HAL_Driver/Src/stm32f1xx_hal_dma.c ****   
 794:Drivers/STM32F1xx_HAL_Driver/Src/stm32f1xx_hal_dma.c **** /**
 795:Drivers/STM32F1xx_HAL_Driver/Src/stm32f1xx_hal_dma.c ****   * @}
 796:Drivers/STM32F1xx_HAL_Driver/Src/stm32f1xx_hal_dma.c ****   */
 797:Drivers/STM32F1xx_HAL_Driver/Src/stm32f1xx_hal_dma.c **** 
 798:Drivers/STM32F1xx_HAL_Driver/Src/stm32f1xx_hal_dma.c **** /** @defgroup DMA_Exported_Functions_Group3 Peripheral State and Errors functions
 799:Drivers/STM32F1xx_HAL_Driver/Src/stm32f1xx_hal_dma.c ****   *  @brief    Peripheral State and Errors functions
 800:Drivers/STM32F1xx_HAL_Driver/Src/stm32f1xx_hal_dma.c ****   *
 801:Drivers/STM32F1xx_HAL_Driver/Src/stm32f1xx_hal_dma.c **** @verbatim
 802:Drivers/STM32F1xx_HAL_Driver/Src/stm32f1xx_hal_dma.c ****  ===============================================================================
 803:Drivers/STM32F1xx_HAL_Driver/Src/stm32f1xx_hal_dma.c ****             ##### Peripheral State and Errors functions #####
 804:Drivers/STM32F1xx_HAL_Driver/Src/stm32f1xx_hal_dma.c ****  ===============================================================================  
 805:Drivers/STM32F1xx_HAL_Driver/Src/stm32f1xx_hal_dma.c ****     [..]
 806:Drivers/STM32F1xx_HAL_Driver/Src/stm32f1xx_hal_dma.c ****     This subsection provides functions allowing to
 807:Drivers/STM32F1xx_HAL_Driver/Src/stm32f1xx_hal_dma.c ****       (+) Check the DMA state
 808:Drivers/STM32F1xx_HAL_Driver/Src/stm32f1xx_hal_dma.c ****       (+) Get error code
 809:Drivers/STM32F1xx_HAL_Driver/Src/stm32f1xx_hal_dma.c **** 
 810:Drivers/STM32F1xx_HAL_Driver/Src/stm32f1xx_hal_dma.c **** @endverbatim
 811:Drivers/STM32F1xx_HAL_Driver/Src/stm32f1xx_hal_dma.c ****   * @{
 812:Drivers/STM32F1xx_HAL_Driver/Src/stm32f1xx_hal_dma.c ****   */
 813:Drivers/STM32F1xx_HAL_Driver/Src/stm32f1xx_hal_dma.c **** 
 814:Drivers/STM32F1xx_HAL_Driver/Src/stm32f1xx_hal_dma.c **** /**
 815:Drivers/STM32F1xx_HAL_Driver/Src/stm32f1xx_hal_dma.c ****   * @brief  Return the DMA hande state.
 816:Drivers/STM32F1xx_HAL_Driver/Src/stm32f1xx_hal_dma.c ****   * @param  hdma: pointer to a DMA_HandleTypeDef structure that contains
 817:Drivers/STM32F1xx_HAL_Driver/Src/stm32f1xx_hal_dma.c ****   *               the configuration information for the specified DMA Channel.
 818:Drivers/STM32F1xx_HAL_Driver/Src/stm32f1xx_hal_dma.c ****   * @retval HAL state
 819:Drivers/STM32F1xx_HAL_Driver/Src/stm32f1xx_hal_dma.c ****   */
 820:Drivers/STM32F1xx_HAL_Driver/Src/stm32f1xx_hal_dma.c **** HAL_DMA_StateTypeDef HAL_DMA_GetState(DMA_HandleTypeDef *hdma)
 821:Drivers/STM32F1xx_HAL_Driver/Src/stm32f1xx_hal_dma.c **** {
 822:Drivers/STM32F1xx_HAL_Driver/Src/stm32f1xx_hal_dma.c ****   /* Return DMA handle state */
 823:Drivers/STM32F1xx_HAL_Driver/Src/stm32f1xx_hal_dma.c ****   return hdma->State;
 824:Drivers/STM32F1xx_HAL_Driver/Src/stm32f1xx_hal_dma.c **** }
 825:Drivers/STM32F1xx_HAL_Driver/Src/stm32f1xx_hal_dma.c **** 
 826:Drivers/STM32F1xx_HAL_Driver/Src/stm32f1xx_hal_dma.c **** /**
 827:Drivers/STM32F1xx_HAL_Driver/Src/stm32f1xx_hal_dma.c ****   * @brief  Return the DMA error code.
 828:Drivers/STM32F1xx_HAL_Driver/Src/stm32f1xx_hal_dma.c ****   * @param  hdma : pointer to a DMA_HandleTypeDef structure that contains
 829:Drivers/STM32F1xx_HAL_Driver/Src/stm32f1xx_hal_dma.c ****   *              the configuration information for the specified DMA Channel.
 830:Drivers/STM32F1xx_HAL_Driver/Src/stm32f1xx_hal_dma.c ****   * @retval DMA Error Code
 831:Drivers/STM32F1xx_HAL_Driver/Src/stm32f1xx_hal_dma.c ****   */
 832:Drivers/STM32F1xx_HAL_Driver/Src/stm32f1xx_hal_dma.c **** uint32_t HAL_DMA_GetError(DMA_HandleTypeDef *hdma)
ARM GAS  /tmp/ccFYW4Uk.s 			page 16


 833:Drivers/STM32F1xx_HAL_Driver/Src/stm32f1xx_hal_dma.c **** {
 834:Drivers/STM32F1xx_HAL_Driver/Src/stm32f1xx_hal_dma.c ****   return hdma->ErrorCode;
 835:Drivers/STM32F1xx_HAL_Driver/Src/stm32f1xx_hal_dma.c **** }
 836:Drivers/STM32F1xx_HAL_Driver/Src/stm32f1xx_hal_dma.c **** 
 837:Drivers/STM32F1xx_HAL_Driver/Src/stm32f1xx_hal_dma.c **** /**
 838:Drivers/STM32F1xx_HAL_Driver/Src/stm32f1xx_hal_dma.c ****   * @}
 839:Drivers/STM32F1xx_HAL_Driver/Src/stm32f1xx_hal_dma.c ****   */
 840:Drivers/STM32F1xx_HAL_Driver/Src/stm32f1xx_hal_dma.c **** 
 841:Drivers/STM32F1xx_HAL_Driver/Src/stm32f1xx_hal_dma.c **** /**
 842:Drivers/STM32F1xx_HAL_Driver/Src/stm32f1xx_hal_dma.c ****   * @}
 843:Drivers/STM32F1xx_HAL_Driver/Src/stm32f1xx_hal_dma.c ****   */
 844:Drivers/STM32F1xx_HAL_Driver/Src/stm32f1xx_hal_dma.c **** 
 845:Drivers/STM32F1xx_HAL_Driver/Src/stm32f1xx_hal_dma.c **** /** @addtogroup DMA_Private_Functions
 846:Drivers/STM32F1xx_HAL_Driver/Src/stm32f1xx_hal_dma.c ****   * @{
 847:Drivers/STM32F1xx_HAL_Driver/Src/stm32f1xx_hal_dma.c ****   */
 848:Drivers/STM32F1xx_HAL_Driver/Src/stm32f1xx_hal_dma.c **** 
 849:Drivers/STM32F1xx_HAL_Driver/Src/stm32f1xx_hal_dma.c **** /**
 850:Drivers/STM32F1xx_HAL_Driver/Src/stm32f1xx_hal_dma.c ****   * @brief  Sets the DMA Transfer parameter.
 851:Drivers/STM32F1xx_HAL_Driver/Src/stm32f1xx_hal_dma.c ****   * @param  hdma:       pointer to a DMA_HandleTypeDef structure that contains
 852:Drivers/STM32F1xx_HAL_Driver/Src/stm32f1xx_hal_dma.c ****   *                     the configuration information for the specified DMA Channel.
 853:Drivers/STM32F1xx_HAL_Driver/Src/stm32f1xx_hal_dma.c ****   * @param  SrcAddress: The source memory Buffer address
 854:Drivers/STM32F1xx_HAL_Driver/Src/stm32f1xx_hal_dma.c ****   * @param  DstAddress: The destination memory Buffer address
 855:Drivers/STM32F1xx_HAL_Driver/Src/stm32f1xx_hal_dma.c ****   * @param  DataLength: The length of data to be transferred from source to destination
 856:Drivers/STM32F1xx_HAL_Driver/Src/stm32f1xx_hal_dma.c ****   * @retval HAL status
 857:Drivers/STM32F1xx_HAL_Driver/Src/stm32f1xx_hal_dma.c ****   */
 858:Drivers/STM32F1xx_HAL_Driver/Src/stm32f1xx_hal_dma.c **** static void DMA_SetConfig(DMA_HandleTypeDef *hdma, uint32_t SrcAddress, uint32_t DstAddress, uint32
 859:Drivers/STM32F1xx_HAL_Driver/Src/stm32f1xx_hal_dma.c **** {
  25              		.loc 1 859 0
  26              		.cfi_startproc
  27              		@ args = 0, pretend = 0, frame = 0
  28              		@ frame_needed = 0, uses_anonymous_args = 0
  29              		@ link register save eliminated.
  30              	.LVL0:
  31 0000 70B4     		push	{r4, r5, r6}
  32              		.cfi_def_cfa_offset 12
  33              		.cfi_offset 4, -12
  34              		.cfi_offset 5, -8
  35              		.cfi_offset 6, -4
 860:Drivers/STM32F1xx_HAL_Driver/Src/stm32f1xx_hal_dma.c ****   /* Clear all flags */
 861:Drivers/STM32F1xx_HAL_Driver/Src/stm32f1xx_hal_dma.c ****   hdma->DmaBaseAddress->IFCR = (DMA_ISR_GIF1 << hdma->ChannelIndex);
  36              		.loc 1 861 0
  37 0002 C56B     		ldr	r5, [r0, #60]
  38 0004 066C     		ldr	r6, [r0, #64]
  39 0006 0124     		movs	r4, #1
  40 0008 B440     		lsls	r4, r4, r6
  41 000a 6C60     		str	r4, [r5, #4]
 862:Drivers/STM32F1xx_HAL_Driver/Src/stm32f1xx_hal_dma.c **** 
 863:Drivers/STM32F1xx_HAL_Driver/Src/stm32f1xx_hal_dma.c ****   /* Configure DMA Channel data length */
 864:Drivers/STM32F1xx_HAL_Driver/Src/stm32f1xx_hal_dma.c ****   hdma->Instance->CNDTR = DataLength;
  42              		.loc 1 864 0
  43 000c 0468     		ldr	r4, [r0]
  44 000e 6360     		str	r3, [r4, #4]
 865:Drivers/STM32F1xx_HAL_Driver/Src/stm32f1xx_hal_dma.c **** 
 866:Drivers/STM32F1xx_HAL_Driver/Src/stm32f1xx_hal_dma.c ****   /* Memory to Peripheral */
 867:Drivers/STM32F1xx_HAL_Driver/Src/stm32f1xx_hal_dma.c ****   if((hdma->Init.Direction) == DMA_MEMORY_TO_PERIPH)
  45              		.loc 1 867 0
  46 0010 4368     		ldr	r3, [r0, #4]
ARM GAS  /tmp/ccFYW4Uk.s 			page 17


  47              	.LVL1:
  48 0012 102B     		cmp	r3, #16
  49 0014 05D0     		beq	.L5
 868:Drivers/STM32F1xx_HAL_Driver/Src/stm32f1xx_hal_dma.c ****   {
 869:Drivers/STM32F1xx_HAL_Driver/Src/stm32f1xx_hal_dma.c ****     /* Configure DMA Channel destination address */
 870:Drivers/STM32F1xx_HAL_Driver/Src/stm32f1xx_hal_dma.c ****     hdma->Instance->CPAR = DstAddress;
 871:Drivers/STM32F1xx_HAL_Driver/Src/stm32f1xx_hal_dma.c **** 
 872:Drivers/STM32F1xx_HAL_Driver/Src/stm32f1xx_hal_dma.c ****     /* Configure DMA Channel source address */
 873:Drivers/STM32F1xx_HAL_Driver/Src/stm32f1xx_hal_dma.c ****     hdma->Instance->CMAR = SrcAddress;
 874:Drivers/STM32F1xx_HAL_Driver/Src/stm32f1xx_hal_dma.c ****   }
 875:Drivers/STM32F1xx_HAL_Driver/Src/stm32f1xx_hal_dma.c ****   /* Peripheral to Memory */
 876:Drivers/STM32F1xx_HAL_Driver/Src/stm32f1xx_hal_dma.c ****   else
 877:Drivers/STM32F1xx_HAL_Driver/Src/stm32f1xx_hal_dma.c ****   {
 878:Drivers/STM32F1xx_HAL_Driver/Src/stm32f1xx_hal_dma.c ****     /* Configure DMA Channel source address */
 879:Drivers/STM32F1xx_HAL_Driver/Src/stm32f1xx_hal_dma.c ****     hdma->Instance->CPAR = SrcAddress;
  50              		.loc 1 879 0
  51 0016 0368     		ldr	r3, [r0]
  52 0018 9960     		str	r1, [r3, #8]
  53              	.LVL2:
 880:Drivers/STM32F1xx_HAL_Driver/Src/stm32f1xx_hal_dma.c **** 
 881:Drivers/STM32F1xx_HAL_Driver/Src/stm32f1xx_hal_dma.c ****     /* Configure DMA Channel destination address */
 882:Drivers/STM32F1xx_HAL_Driver/Src/stm32f1xx_hal_dma.c ****     hdma->Instance->CMAR = DstAddress;
  54              		.loc 1 882 0
  55 001a 0368     		ldr	r3, [r0]
  56 001c DA60     		str	r2, [r3, #12]
  57              	.L1:
 883:Drivers/STM32F1xx_HAL_Driver/Src/stm32f1xx_hal_dma.c ****   }
 884:Drivers/STM32F1xx_HAL_Driver/Src/stm32f1xx_hal_dma.c **** }
  58              		.loc 1 884 0
  59 001e 70BC     		pop	{r4, r5, r6}
  60              		.cfi_remember_state
  61              		.cfi_restore 6
  62              		.cfi_restore 5
  63              		.cfi_restore 4
  64              		.cfi_def_cfa_offset 0
  65 0020 7047     		bx	lr
  66              	.LVL3:
  67              	.L5:
  68              		.cfi_restore_state
 870:Drivers/STM32F1xx_HAL_Driver/Src/stm32f1xx_hal_dma.c **** 
  69              		.loc 1 870 0
  70 0022 0368     		ldr	r3, [r0]
  71 0024 9A60     		str	r2, [r3, #8]
  72              	.LVL4:
 873:Drivers/STM32F1xx_HAL_Driver/Src/stm32f1xx_hal_dma.c ****   }
  73              		.loc 1 873 0
  74 0026 0368     		ldr	r3, [r0]
  75 0028 D960     		str	r1, [r3, #12]
  76 002a F8E7     		b	.L1
  77              		.cfi_endproc
  78              	.LFE77:
  80              		.section	.text.HAL_DMA_Init,"ax",%progbits
  81              		.align	1
  82              		.global	HAL_DMA_Init
  83              		.syntax unified
  84              		.thumb
  85              		.thumb_func
ARM GAS  /tmp/ccFYW4Uk.s 			page 18


  86              		.fpu softvfp
  88              	HAL_DMA_Init:
  89              	.LFB65:
 144:Drivers/STM32F1xx_HAL_Driver/Src/stm32f1xx_hal_dma.c ****   uint32_t tmp = 0U;
  90              		.loc 1 144 0
  91              		.cfi_startproc
  92              		@ args = 0, pretend = 0, frame = 0
  93              		@ frame_needed = 0, uses_anonymous_args = 0
  94              		@ link register save eliminated.
  95              	.LVL5:
 148:Drivers/STM32F1xx_HAL_Driver/Src/stm32f1xx_hal_dma.c ****   {
  96              		.loc 1 148 0
  97 0000 0028     		cmp	r0, #0
  98 0002 3BD0     		beq	.L10
 144:Drivers/STM32F1xx_HAL_Driver/Src/stm32f1xx_hal_dma.c ****   uint32_t tmp = 0U;
  99              		.loc 1 144 0
 100 0004 10B4     		push	{r4}
 101              		.cfi_def_cfa_offset 4
 102              		.cfi_offset 4, -4
 103 0006 0346     		mov	r3, r0
 165:Drivers/STM32F1xx_HAL_Driver/Src/stm32f1xx_hal_dma.c ****   {
 104              		.loc 1 165 0
 105 0008 0168     		ldr	r1, [r0]
 106 000a 1D4A     		ldr	r2, .L15
 107 000c 9142     		cmp	r1, r2
 108 000e 2AD8     		bhi	.L8
 168:Drivers/STM32F1xx_HAL_Driver/Src/stm32f1xx_hal_dma.c ****     hdma->DmaBaseAddress = DMA1;
 109              		.loc 1 168 0
 110 0010 1C4A     		ldr	r2, .L15+4
 111 0012 0A44     		add	r2, r2, r1
 112 0014 1C49     		ldr	r1, .L15+8
 113 0016 A1FB0212 		umull	r1, r2, r1, r2
 114 001a 1209     		lsrs	r2, r2, #4
 115 001c 9200     		lsls	r2, r2, #2
 116 001e 0264     		str	r2, [r0, #64]
 169:Drivers/STM32F1xx_HAL_Driver/Src/stm32f1xx_hal_dma.c ****   }
 117              		.loc 1 169 0
 118 0020 1A4A     		ldr	r2, .L15+12
 119 0022 C263     		str	r2, [r0, #60]
 120              	.L9:
 184:Drivers/STM32F1xx_HAL_Driver/Src/stm32f1xx_hal_dma.c **** 
 121              		.loc 1 184 0
 122 0024 0222     		movs	r2, #2
 123 0026 83F82120 		strb	r2, [r3, #33]
 187:Drivers/STM32F1xx_HAL_Driver/Src/stm32f1xx_hal_dma.c **** 
 124              		.loc 1 187 0
 125 002a 1868     		ldr	r0, [r3]
 126              	.LVL6:
 127 002c 0168     		ldr	r1, [r0]
 128              	.LVL7:
 190:Drivers/STM32F1xx_HAL_Driver/Src/stm32f1xx_hal_dma.c ****                       DMA_CCR_MINC  | DMA_CCR_PINC   | DMA_CCR_CIRC   | \
 129              		.loc 1 190 0
 130 002e 21F47F51 		bic	r1, r1, #16320
 131              	.LVL8:
 132 0032 21F03001 		bic	r1, r1, #48
 133              	.LVL9:
 195:Drivers/STM32F1xx_HAL_Driver/Src/stm32f1xx_hal_dma.c ****           hdma->Init.PeriphInc           | hdma->Init.MemInc           |
ARM GAS  /tmp/ccFYW4Uk.s 			page 19


 134              		.loc 1 195 0
 135 0036 5A68     		ldr	r2, [r3, #4]
 196:Drivers/STM32F1xx_HAL_Driver/Src/stm32f1xx_hal_dma.c ****           hdma->Init.PeriphDataAlignment | hdma->Init.MemDataAlignment |
 136              		.loc 1 196 0
 137 0038 9C68     		ldr	r4, [r3, #8]
 195:Drivers/STM32F1xx_HAL_Driver/Src/stm32f1xx_hal_dma.c ****           hdma->Init.PeriphInc           | hdma->Init.MemInc           |
 138              		.loc 1 195 0
 139 003a 2243     		orrs	r2, r2, r4
 196:Drivers/STM32F1xx_HAL_Driver/Src/stm32f1xx_hal_dma.c ****           hdma->Init.PeriphDataAlignment | hdma->Init.MemDataAlignment |
 140              		.loc 1 196 0
 141 003c DC68     		ldr	r4, [r3, #12]
 142 003e 2243     		orrs	r2, r2, r4
 197:Drivers/STM32F1xx_HAL_Driver/Src/stm32f1xx_hal_dma.c ****           hdma->Init.Mode                | hdma->Init.Priority;
 143              		.loc 1 197 0
 144 0040 1C69     		ldr	r4, [r3, #16]
 196:Drivers/STM32F1xx_HAL_Driver/Src/stm32f1xx_hal_dma.c ****           hdma->Init.PeriphDataAlignment | hdma->Init.MemDataAlignment |
 145              		.loc 1 196 0
 146 0042 2243     		orrs	r2, r2, r4
 197:Drivers/STM32F1xx_HAL_Driver/Src/stm32f1xx_hal_dma.c ****           hdma->Init.Mode                | hdma->Init.Priority;
 147              		.loc 1 197 0
 148 0044 5C69     		ldr	r4, [r3, #20]
 149 0046 2243     		orrs	r2, r2, r4
 198:Drivers/STM32F1xx_HAL_Driver/Src/stm32f1xx_hal_dma.c **** 
 150              		.loc 1 198 0
 151 0048 9C69     		ldr	r4, [r3, #24]
 197:Drivers/STM32F1xx_HAL_Driver/Src/stm32f1xx_hal_dma.c ****           hdma->Init.Mode                | hdma->Init.Priority;
 152              		.loc 1 197 0
 153 004a 2243     		orrs	r2, r2, r4
 198:Drivers/STM32F1xx_HAL_Driver/Src/stm32f1xx_hal_dma.c **** 
 154              		.loc 1 198 0
 155 004c DC69     		ldr	r4, [r3, #28]
 156 004e 2243     		orrs	r2, r2, r4
 195:Drivers/STM32F1xx_HAL_Driver/Src/stm32f1xx_hal_dma.c ****           hdma->Init.PeriphInc           | hdma->Init.MemInc           |
 157              		.loc 1 195 0
 158 0050 0A43     		orrs	r2, r2, r1
 159              	.LVL10:
 201:Drivers/STM32F1xx_HAL_Driver/Src/stm32f1xx_hal_dma.c **** 
 160              		.loc 1 201 0
 161 0052 0260     		str	r2, [r0]
 204:Drivers/STM32F1xx_HAL_Driver/Src/stm32f1xx_hal_dma.c **** 
 162              		.loc 1 204 0
 163 0054 0020     		movs	r0, #0
 164 0056 9863     		str	r0, [r3, #56]
 207:Drivers/STM32F1xx_HAL_Driver/Src/stm32f1xx_hal_dma.c ****   /* Allocate lock resource and initialize it */
 165              		.loc 1 207 0
 166 0058 0122     		movs	r2, #1
 167              	.LVL11:
 168 005a 83F82120 		strb	r2, [r3, #33]
 209:Drivers/STM32F1xx_HAL_Driver/Src/stm32f1xx_hal_dma.c **** 
 169              		.loc 1 209 0
 170 005e 83F82000 		strb	r0, [r3, #32]
 212:Drivers/STM32F1xx_HAL_Driver/Src/stm32f1xx_hal_dma.c **** 
 171              		.loc 1 212 0
 172 0062 10BC     		pop	{r4}
 173              		.cfi_remember_state
 174              		.cfi_restore 4
 175              		.cfi_def_cfa_offset 0
ARM GAS  /tmp/ccFYW4Uk.s 			page 20


 176 0064 7047     		bx	lr
 177              	.LVL12:
 178              	.L8:
 179              		.cfi_restore_state
 174:Drivers/STM32F1xx_HAL_Driver/Src/stm32f1xx_hal_dma.c ****     hdma->DmaBaseAddress = DMA2;
 180              		.loc 1 174 0
 181 0066 0A4A     		ldr	r2, .L15+16
 182 0068 0A44     		add	r2, r2, r1
 183 006a 0749     		ldr	r1, .L15+8
 184 006c A1FB0212 		umull	r1, r2, r1, r2
 185 0070 1209     		lsrs	r2, r2, #4
 186 0072 9200     		lsls	r2, r2, #2
 187 0074 0264     		str	r2, [r0, #64]
 175:Drivers/STM32F1xx_HAL_Driver/Src/stm32f1xx_hal_dma.c ****   }
 188              		.loc 1 175 0
 189 0076 074A     		ldr	r2, .L15+20
 190 0078 C263     		str	r2, [r0, #60]
 191 007a D3E7     		b	.L9
 192              	.L10:
 193              		.cfi_def_cfa_offset 0
 194              		.cfi_restore 4
 150:Drivers/STM32F1xx_HAL_Driver/Src/stm32f1xx_hal_dma.c ****   }
 195              		.loc 1 150 0
 196 007c 0120     		movs	r0, #1
 197              	.LVL13:
 198 007e 7047     		bx	lr
 199              	.L16:
 200              		.align	2
 201              	.L15:
 202 0080 07040240 		.word	1073873927
 203 0084 F8FFFDBF 		.word	-1073872904
 204 0088 CDCCCCCC 		.word	-858993459
 205 008c 00000240 		.word	1073872896
 206 0090 F8FBFDBF 		.word	-1073873928
 207 0094 00040240 		.word	1073873920
 208              		.cfi_endproc
 209              	.LFE65:
 211              		.section	.text.HAL_DMA_DeInit,"ax",%progbits
 212              		.align	1
 213              		.global	HAL_DMA_DeInit
 214              		.syntax unified
 215              		.thumb
 216              		.thumb_func
 217              		.fpu softvfp
 219              	HAL_DMA_DeInit:
 220              	.LFB66:
 221:Drivers/STM32F1xx_HAL_Driver/Src/stm32f1xx_hal_dma.c ****   /* Check the DMA handle allocation */
 221              		.loc 1 221 0
 222              		.cfi_startproc
 223              		@ args = 0, pretend = 0, frame = 0
 224              		@ frame_needed = 0, uses_anonymous_args = 0
 225              		@ link register save eliminated.
 226              	.LVL14:
 223:Drivers/STM32F1xx_HAL_Driver/Src/stm32f1xx_hal_dma.c ****   {
 227              		.loc 1 223 0
 228 0000 0346     		mov	r3, r0
 229 0002 0028     		cmp	r0, #0
ARM GAS  /tmp/ccFYW4Uk.s 			page 21


 230 0004 36D0     		beq	.L21
 232:Drivers/STM32F1xx_HAL_Driver/Src/stm32f1xx_hal_dma.c **** 
 231              		.loc 1 232 0
 232 0006 0168     		ldr	r1, [r0]
 233 0008 0A68     		ldr	r2, [r1]
 234 000a 22F00102 		bic	r2, r2, #1
 235 000e 0A60     		str	r2, [r1]
 235:Drivers/STM32F1xx_HAL_Driver/Src/stm32f1xx_hal_dma.c **** 
 236              		.loc 1 235 0
 237 0010 0168     		ldr	r1, [r0]
 238 0012 0022     		movs	r2, #0
 239 0014 0A60     		str	r2, [r1]
 238:Drivers/STM32F1xx_HAL_Driver/Src/stm32f1xx_hal_dma.c **** 
 240              		.loc 1 238 0
 241 0016 0168     		ldr	r1, [r0]
 242 0018 4A60     		str	r2, [r1, #4]
 241:Drivers/STM32F1xx_HAL_Driver/Src/stm32f1xx_hal_dma.c **** 
 243              		.loc 1 241 0
 244 001a 0168     		ldr	r1, [r0]
 245 001c 8A60     		str	r2, [r1, #8]
 244:Drivers/STM32F1xx_HAL_Driver/Src/stm32f1xx_hal_dma.c **** 
 246              		.loc 1 244 0
 247 001e 0168     		ldr	r1, [r0]
 248 0020 CA60     		str	r2, [r1, #12]
 248:Drivers/STM32F1xx_HAL_Driver/Src/stm32f1xx_hal_dma.c ****   {
 249              		.loc 1 248 0
 250 0022 0168     		ldr	r1, [r0]
 251 0024 144A     		ldr	r2, .L22
 252 0026 9142     		cmp	r1, r2
 253 0028 19D8     		bhi	.L19
 251:Drivers/STM32F1xx_HAL_Driver/Src/stm32f1xx_hal_dma.c ****     hdma->DmaBaseAddress = DMA1;
 254              		.loc 1 251 0
 255 002a 144A     		ldr	r2, .L22+4
 256 002c 0A44     		add	r2, r2, r1
 257 002e 1449     		ldr	r1, .L22+8
 258 0030 A1FB0212 		umull	r1, r2, r1, r2
 259 0034 1209     		lsrs	r2, r2, #4
 260 0036 9200     		lsls	r2, r2, #2
 261 0038 0264     		str	r2, [r0, #64]
 252:Drivers/STM32F1xx_HAL_Driver/Src/stm32f1xx_hal_dma.c ****   }
 262              		.loc 1 252 0
 263 003a 124A     		ldr	r2, .L22+12
 264 003c C263     		str	r2, [r0, #60]
 265              	.L20:
 267:Drivers/STM32F1xx_HAL_Driver/Src/stm32f1xx_hal_dma.c **** 
 266              		.loc 1 267 0
 267 003e D96B     		ldr	r1, [r3, #60]
 268 0040 186C     		ldr	r0, [r3, #64]
 269              	.LVL15:
 270 0042 0122     		movs	r2, #1
 271 0044 8240     		lsls	r2, r2, r0
 272 0046 4A60     		str	r2, [r1, #4]
 270:Drivers/STM32F1xx_HAL_Driver/Src/stm32f1xx_hal_dma.c ****   hdma->XferHalfCpltCallback = NULL;
 273              		.loc 1 270 0
 274 0048 0020     		movs	r0, #0
 275 004a 9862     		str	r0, [r3, #40]
 271:Drivers/STM32F1xx_HAL_Driver/Src/stm32f1xx_hal_dma.c ****   hdma->XferErrorCallback = NULL;
ARM GAS  /tmp/ccFYW4Uk.s 			page 22


 276              		.loc 1 271 0
 277 004c D862     		str	r0, [r3, #44]
 272:Drivers/STM32F1xx_HAL_Driver/Src/stm32f1xx_hal_dma.c ****   hdma->XferAbortCallback = NULL;
 278              		.loc 1 272 0
 279 004e 1863     		str	r0, [r3, #48]
 273:Drivers/STM32F1xx_HAL_Driver/Src/stm32f1xx_hal_dma.c **** 
 280              		.loc 1 273 0
 281 0050 5863     		str	r0, [r3, #52]
 276:Drivers/STM32F1xx_HAL_Driver/Src/stm32f1xx_hal_dma.c **** 
 282              		.loc 1 276 0
 283 0052 9863     		str	r0, [r3, #56]
 279:Drivers/STM32F1xx_HAL_Driver/Src/stm32f1xx_hal_dma.c **** 
 284              		.loc 1 279 0
 285 0054 83F82100 		strb	r0, [r3, #33]
 282:Drivers/STM32F1xx_HAL_Driver/Src/stm32f1xx_hal_dma.c **** 
 286              		.loc 1 282 0
 287 0058 83F82000 		strb	r0, [r3, #32]
 284:Drivers/STM32F1xx_HAL_Driver/Src/stm32f1xx_hal_dma.c **** }
 288              		.loc 1 284 0
 289 005c 7047     		bx	lr
 290              	.LVL16:
 291              	.L19:
 257:Drivers/STM32F1xx_HAL_Driver/Src/stm32f1xx_hal_dma.c ****     hdma->DmaBaseAddress = DMA2;
 292              		.loc 1 257 0
 293 005e 0A4A     		ldr	r2, .L22+16
 294 0060 0A44     		add	r2, r2, r1
 295 0062 0749     		ldr	r1, .L22+8
 296 0064 A1FB0212 		umull	r1, r2, r1, r2
 297 0068 1209     		lsrs	r2, r2, #4
 298 006a 9200     		lsls	r2, r2, #2
 299 006c 0264     		str	r2, [r0, #64]
 258:Drivers/STM32F1xx_HAL_Driver/Src/stm32f1xx_hal_dma.c ****   }
 300              		.loc 1 258 0
 301 006e 074A     		ldr	r2, .L22+20
 302 0070 C263     		str	r2, [r0, #60]
 303 0072 E4E7     		b	.L20
 304              	.L21:
 225:Drivers/STM32F1xx_HAL_Driver/Src/stm32f1xx_hal_dma.c ****   }
 305              		.loc 1 225 0
 306 0074 0120     		movs	r0, #1
 307              	.LVL17:
 285:Drivers/STM32F1xx_HAL_Driver/Src/stm32f1xx_hal_dma.c **** 
 308              		.loc 1 285 0
 309 0076 7047     		bx	lr
 310              	.L23:
 311              		.align	2
 312              	.L22:
 313 0078 07040240 		.word	1073873927
 314 007c F8FFFDBF 		.word	-1073872904
 315 0080 CDCCCCCC 		.word	-858993459
 316 0084 00000240 		.word	1073872896
 317 0088 F8FBFDBF 		.word	-1073873928
 318 008c 00040240 		.word	1073873920
 319              		.cfi_endproc
 320              	.LFE66:
 322              		.section	.text.HAL_DMA_Start,"ax",%progbits
 323              		.align	1
ARM GAS  /tmp/ccFYW4Uk.s 			page 23


 324              		.global	HAL_DMA_Start
 325              		.syntax unified
 326              		.thumb
 327              		.thumb_func
 328              		.fpu softvfp
 330              	HAL_DMA_Start:
 331              	.LFB67:
 320:Drivers/STM32F1xx_HAL_Driver/Src/stm32f1xx_hal_dma.c ****   HAL_StatusTypeDef status = HAL_OK;
 332              		.loc 1 320 0
 333              		.cfi_startproc
 334              		@ args = 0, pretend = 0, frame = 0
 335              		@ frame_needed = 0, uses_anonymous_args = 0
 336              	.LVL18:
 337 0000 70B5     		push	{r4, r5, r6, lr}
 338              		.cfi_def_cfa_offset 16
 339              		.cfi_offset 4, -16
 340              		.cfi_offset 5, -12
 341              		.cfi_offset 6, -8
 342              		.cfi_offset 14, -4
 343              	.LVL19:
 327:Drivers/STM32F1xx_HAL_Driver/Src/stm32f1xx_hal_dma.c **** 
 344              		.loc 1 327 0
 345 0002 90F82040 		ldrb	r4, [r0, #32]	@ zero_extendqisi2
 346 0006 012C     		cmp	r4, #1
 347 0008 20D0     		beq	.L27
 327:Drivers/STM32F1xx_HAL_Driver/Src/stm32f1xx_hal_dma.c **** 
 348              		.loc 1 327 0 is_stmt 0 discriminator 2
 349 000a 0124     		movs	r4, #1
 350 000c 80F82040 		strb	r4, [r0, #32]
 329:Drivers/STM32F1xx_HAL_Driver/Src/stm32f1xx_hal_dma.c ****   {
 351              		.loc 1 329 0 is_stmt 1 discriminator 2
 352 0010 90F82140 		ldrb	r4, [r0, #33]	@ zero_extendqisi2
 353 0014 012C     		cmp	r4, #1
 354 0016 04D0     		beq	.L29
 347:Drivers/STM32F1xx_HAL_Driver/Src/stm32f1xx_hal_dma.c ****    status = HAL_BUSY;
 355              		.loc 1 347 0
 356 0018 0023     		movs	r3, #0
 357              	.LVL20:
 358 001a 80F82030 		strb	r3, [r0, #32]
 359              	.LVL21:
 348:Drivers/STM32F1xx_HAL_Driver/Src/stm32f1xx_hal_dma.c ****   }  
 360              		.loc 1 348 0
 361 001e 0220     		movs	r0, #2
 362              	.LVL22:
 363 0020 70BD     		pop	{r4, r5, r6, pc}
 364              	.LVL23:
 365              	.L29:
 366 0022 0446     		mov	r4, r0
 332:Drivers/STM32F1xx_HAL_Driver/Src/stm32f1xx_hal_dma.c ****     hdma->ErrorCode = HAL_DMA_ERROR_NONE;
 367              		.loc 1 332 0
 368 0024 0220     		movs	r0, #2
 369              	.LVL24:
 370 0026 84F82100 		strb	r0, [r4, #33]
 333:Drivers/STM32F1xx_HAL_Driver/Src/stm32f1xx_hal_dma.c ****             
 371              		.loc 1 333 0
 372 002a 0025     		movs	r5, #0
 373 002c A563     		str	r5, [r4, #56]
ARM GAS  /tmp/ccFYW4Uk.s 			page 24


 336:Drivers/STM32F1xx_HAL_Driver/Src/stm32f1xx_hal_dma.c ****     
 374              		.loc 1 336 0
 375 002e 2668     		ldr	r6, [r4]
 376 0030 3068     		ldr	r0, [r6]
 377 0032 20F00100 		bic	r0, r0, #1
 378 0036 3060     		str	r0, [r6]
 339:Drivers/STM32F1xx_HAL_Driver/Src/stm32f1xx_hal_dma.c ****     
 379              		.loc 1 339 0
 380 0038 2046     		mov	r0, r4
 381 003a FFF7FEFF 		bl	DMA_SetConfig
 382              	.LVL25:
 342:Drivers/STM32F1xx_HAL_Driver/Src/stm32f1xx_hal_dma.c ****   }
 383              		.loc 1 342 0
 384 003e 2268     		ldr	r2, [r4]
 385 0040 1368     		ldr	r3, [r2]
 386 0042 43F00103 		orr	r3, r3, #1
 387 0046 1360     		str	r3, [r2]
 321:Drivers/STM32F1xx_HAL_Driver/Src/stm32f1xx_hal_dma.c **** 
 388              		.loc 1 321 0
 389 0048 2846     		mov	r0, r5
 390 004a 70BD     		pop	{r4, r5, r6, pc}
 391              	.LVL26:
 392              	.L27:
 327:Drivers/STM32F1xx_HAL_Driver/Src/stm32f1xx_hal_dma.c **** 
 393              		.loc 1 327 0
 394 004c 0220     		movs	r0, #2
 395              	.LVL27:
 351:Drivers/STM32F1xx_HAL_Driver/Src/stm32f1xx_hal_dma.c **** 
 396              		.loc 1 351 0
 397 004e 70BD     		pop	{r4, r5, r6, pc}
 398              		.cfi_endproc
 399              	.LFE67:
 401              		.section	.text.HAL_DMA_Start_IT,"ax",%progbits
 402              		.align	1
 403              		.global	HAL_DMA_Start_IT
 404              		.syntax unified
 405              		.thumb
 406              		.thumb_func
 407              		.fpu softvfp
 409              	HAL_DMA_Start_IT:
 410              	.LFB68:
 363:Drivers/STM32F1xx_HAL_Driver/Src/stm32f1xx_hal_dma.c ****   HAL_StatusTypeDef status = HAL_OK;
 411              		.loc 1 363 0
 412              		.cfi_startproc
 413              		@ args = 0, pretend = 0, frame = 0
 414              		@ frame_needed = 0, uses_anonymous_args = 0
 415              	.LVL28:
 416 0000 38B5     		push	{r3, r4, r5, lr}
 417              		.cfi_def_cfa_offset 16
 418              		.cfi_offset 3, -16
 419              		.cfi_offset 4, -12
 420              		.cfi_offset 5, -8
 421              		.cfi_offset 14, -4
 422              	.LVL29:
 370:Drivers/STM32F1xx_HAL_Driver/Src/stm32f1xx_hal_dma.c ****   
 423              		.loc 1 370 0
 424 0002 90F82040 		ldrb	r4, [r0, #32]	@ zero_extendqisi2
ARM GAS  /tmp/ccFYW4Uk.s 			page 25


 425 0006 012C     		cmp	r4, #1
 426 0008 32D0     		beq	.L35
 370:Drivers/STM32F1xx_HAL_Driver/Src/stm32f1xx_hal_dma.c ****   
 427              		.loc 1 370 0 is_stmt 0 discriminator 2
 428 000a 0124     		movs	r4, #1
 429 000c 80F82040 		strb	r4, [r0, #32]
 372:Drivers/STM32F1xx_HAL_Driver/Src/stm32f1xx_hal_dma.c ****   {
 430              		.loc 1 372 0 is_stmt 1 discriminator 2
 431 0010 90F82140 		ldrb	r4, [r0, #33]	@ zero_extendqisi2
 432 0014 012C     		cmp	r4, #1
 433 0016 04D0     		beq	.L37
 402:Drivers/STM32F1xx_HAL_Driver/Src/stm32f1xx_hal_dma.c **** 
 434              		.loc 1 402 0
 435 0018 0023     		movs	r3, #0
 436              	.LVL30:
 437 001a 80F82030 		strb	r3, [r0, #32]
 438              	.LVL31:
 405:Drivers/STM32F1xx_HAL_Driver/Src/stm32f1xx_hal_dma.c ****   }    
 439              		.loc 1 405 0
 440 001e 0220     		movs	r0, #2
 441              	.LVL32:
 442 0020 38BD     		pop	{r3, r4, r5, pc}
 443              	.LVL33:
 444              	.L37:
 445 0022 0446     		mov	r4, r0
 375:Drivers/STM32F1xx_HAL_Driver/Src/stm32f1xx_hal_dma.c ****     hdma->ErrorCode = HAL_DMA_ERROR_NONE;
 446              		.loc 1 375 0
 447 0024 0220     		movs	r0, #2
 448              	.LVL34:
 449 0026 84F82100 		strb	r0, [r4, #33]
 376:Drivers/STM32F1xx_HAL_Driver/Src/stm32f1xx_hal_dma.c ****     
 450              		.loc 1 376 0
 451 002a 0020     		movs	r0, #0
 452 002c A063     		str	r0, [r4, #56]
 379:Drivers/STM32F1xx_HAL_Driver/Src/stm32f1xx_hal_dma.c ****     
 453              		.loc 1 379 0
 454 002e 2568     		ldr	r5, [r4]
 455 0030 2868     		ldr	r0, [r5]
 456 0032 20F00100 		bic	r0, r0, #1
 457 0036 2860     		str	r0, [r5]
 382:Drivers/STM32F1xx_HAL_Driver/Src/stm32f1xx_hal_dma.c ****     
 458              		.loc 1 382 0
 459 0038 2046     		mov	r0, r4
 460 003a FFF7FEFF 		bl	DMA_SetConfig
 461              	.LVL35:
 386:Drivers/STM32F1xx_HAL_Driver/Src/stm32f1xx_hal_dma.c ****     {
 462              		.loc 1 386 0
 463 003e E36A     		ldr	r3, [r4, #44]
 464 0040 5BB1     		cbz	r3, .L33
 389:Drivers/STM32F1xx_HAL_Driver/Src/stm32f1xx_hal_dma.c ****     }
 465              		.loc 1 389 0
 466 0042 2268     		ldr	r2, [r4]
 467 0044 1368     		ldr	r3, [r2]
 468 0046 43F00E03 		orr	r3, r3, #14
 469 004a 1360     		str	r3, [r2]
 470              	.L34:
 397:Drivers/STM32F1xx_HAL_Driver/Src/stm32f1xx_hal_dma.c ****   }
ARM GAS  /tmp/ccFYW4Uk.s 			page 26


 471              		.loc 1 397 0
 472 004c 2268     		ldr	r2, [r4]
 473 004e 1368     		ldr	r3, [r2]
 474 0050 43F00103 		orr	r3, r3, #1
 475 0054 1360     		str	r3, [r2]
 364:Drivers/STM32F1xx_HAL_Driver/Src/stm32f1xx_hal_dma.c **** 
 476              		.loc 1 364 0
 477 0056 0020     		movs	r0, #0
 478 0058 38BD     		pop	{r3, r4, r5, pc}
 479              	.LVL36:
 480              	.L33:
 393:Drivers/STM32F1xx_HAL_Driver/Src/stm32f1xx_hal_dma.c ****       __HAL_DMA_ENABLE_IT(hdma, (DMA_IT_TC | DMA_IT_TE));
 481              		.loc 1 393 0
 482 005a 2268     		ldr	r2, [r4]
 483 005c 1368     		ldr	r3, [r2]
 484 005e 23F00403 		bic	r3, r3, #4
 485 0062 1360     		str	r3, [r2]
 394:Drivers/STM32F1xx_HAL_Driver/Src/stm32f1xx_hal_dma.c ****     }
 486              		.loc 1 394 0
 487 0064 2268     		ldr	r2, [r4]
 488 0066 1368     		ldr	r3, [r2]
 489 0068 43F00A03 		orr	r3, r3, #10
 490 006c 1360     		str	r3, [r2]
 491 006e EDE7     		b	.L34
 492              	.LVL37:
 493              	.L35:
 370:Drivers/STM32F1xx_HAL_Driver/Src/stm32f1xx_hal_dma.c ****   
 494              		.loc 1 370 0
 495 0070 0220     		movs	r0, #2
 496              	.LVL38:
 408:Drivers/STM32F1xx_HAL_Driver/Src/stm32f1xx_hal_dma.c **** 
 497              		.loc 1 408 0
 498 0072 38BD     		pop	{r3, r4, r5, pc}
 499              		.cfi_endproc
 500              	.LFE68:
 502              		.section	.text.HAL_DMA_Abort,"ax",%progbits
 503              		.align	1
 504              		.global	HAL_DMA_Abort
 505              		.syntax unified
 506              		.thumb
 507              		.thumb_func
 508              		.fpu softvfp
 510              	HAL_DMA_Abort:
 511              	.LFB69:
 417:Drivers/STM32F1xx_HAL_Driver/Src/stm32f1xx_hal_dma.c ****   HAL_StatusTypeDef status = HAL_OK;
 512              		.loc 1 417 0
 513              		.cfi_startproc
 514              		@ args = 0, pretend = 0, frame = 0
 515              		@ frame_needed = 0, uses_anonymous_args = 0
 516              		@ link register save eliminated.
 517              	.LVL39:
 420:Drivers/STM32F1xx_HAL_Driver/Src/stm32f1xx_hal_dma.c ****   {
 518              		.loc 1 420 0
 519 0000 90F82130 		ldrb	r3, [r0, #33]	@ zero_extendqisi2
 520 0004 022B     		cmp	r3, #2
 521 0006 06D0     		beq	.L39
 423:Drivers/STM32F1xx_HAL_Driver/Src/stm32f1xx_hal_dma.c ****     
ARM GAS  /tmp/ccFYW4Uk.s 			page 27


 522              		.loc 1 423 0
 523 0008 0423     		movs	r3, #4
 524 000a 8363     		str	r3, [r0, #56]
 426:Drivers/STM32F1xx_HAL_Driver/Src/stm32f1xx_hal_dma.c ****     
 525              		.loc 1 426 0
 526 000c 0023     		movs	r3, #0
 527 000e 80F82030 		strb	r3, [r0, #32]
 428:Drivers/STM32F1xx_HAL_Driver/Src/stm32f1xx_hal_dma.c ****   }
 528              		.loc 1 428 0
 529 0012 0120     		movs	r0, #1
 530              	.LVL40:
 531 0014 7047     		bx	lr
 532              	.LVL41:
 533              	.L39:
 434:Drivers/STM32F1xx_HAL_Driver/Src/stm32f1xx_hal_dma.c ****       
 534              		.loc 1 434 0
 535 0016 0268     		ldr	r2, [r0]
 536 0018 1368     		ldr	r3, [r2]
 537 001a 23F00E03 		bic	r3, r3, #14
 538 001e 1360     		str	r3, [r2]
 437:Drivers/STM32F1xx_HAL_Driver/Src/stm32f1xx_hal_dma.c ****       
 539              		.loc 1 437 0
 540 0020 0268     		ldr	r2, [r0]
 541 0022 1368     		ldr	r3, [r2]
 542 0024 23F00103 		bic	r3, r3, #1
 543 0028 1360     		str	r3, [r2]
 440:Drivers/STM32F1xx_HAL_Driver/Src/stm32f1xx_hal_dma.c ****   }
 544              		.loc 1 440 0
 545 002a C16B     		ldr	r1, [r0, #60]
 546 002c 036C     		ldr	r3, [r0, #64]
 547 002e 0122     		movs	r2, #1
 548 0030 02FA03F3 		lsl	r3, r2, r3
 549 0034 4B60     		str	r3, [r1, #4]
 443:Drivers/STM32F1xx_HAL_Driver/Src/stm32f1xx_hal_dma.c **** 
 550              		.loc 1 443 0
 551 0036 80F82120 		strb	r2, [r0, #33]
 446:Drivers/STM32F1xx_HAL_Driver/Src/stm32f1xx_hal_dma.c ****   
 552              		.loc 1 446 0
 553 003a 0023     		movs	r3, #0
 554 003c 80F82030 		strb	r3, [r0, #32]
 448:Drivers/STM32F1xx_HAL_Driver/Src/stm32f1xx_hal_dma.c **** }
 555              		.loc 1 448 0
 556 0040 1846     		mov	r0, r3
 557              	.LVL42:
 449:Drivers/STM32F1xx_HAL_Driver/Src/stm32f1xx_hal_dma.c **** 
 558              		.loc 1 449 0
 559 0042 7047     		bx	lr
 560              		.cfi_endproc
 561              	.LFE69:
 563              		.section	.text.HAL_DMA_Abort_IT,"ax",%progbits
 564              		.align	1
 565              		.global	HAL_DMA_Abort_IT
 566              		.syntax unified
 567              		.thumb
 568              		.thumb_func
 569              		.fpu softvfp
 571              	HAL_DMA_Abort_IT:
ARM GAS  /tmp/ccFYW4Uk.s 			page 28


 572              	.LFB70:
 458:Drivers/STM32F1xx_HAL_Driver/Src/stm32f1xx_hal_dma.c ****   HAL_StatusTypeDef status = HAL_OK;
 573              		.loc 1 458 0
 574              		.cfi_startproc
 575              		@ args = 0, pretend = 0, frame = 0
 576              		@ frame_needed = 0, uses_anonymous_args = 0
 577              	.LVL43:
 578 0000 08B5     		push	{r3, lr}
 579              		.cfi_def_cfa_offset 8
 580              		.cfi_offset 3, -8
 581              		.cfi_offset 14, -4
 582              	.LVL44:
 461:Drivers/STM32F1xx_HAL_Driver/Src/stm32f1xx_hal_dma.c ****   {
 583              		.loc 1 461 0
 584 0002 90F82130 		ldrb	r3, [r0, #33]	@ zero_extendqisi2
 585 0006 022B     		cmp	r3, #2
 586 0008 03D0     		beq	.L42
 464:Drivers/STM32F1xx_HAL_Driver/Src/stm32f1xx_hal_dma.c ****         
 587              		.loc 1 464 0
 588 000a 0423     		movs	r3, #4
 589 000c 8363     		str	r3, [r0, #56]
 590              	.LVL45:
 466:Drivers/STM32F1xx_HAL_Driver/Src/stm32f1xx_hal_dma.c ****   }
 591              		.loc 1 466 0
 592 000e 0120     		movs	r0, #1
 593              	.LVL46:
 594 0010 08BD     		pop	{r3, pc}
 595              	.LVL47:
 596              	.L42:
 471:Drivers/STM32F1xx_HAL_Driver/Src/stm32f1xx_hal_dma.c **** 
 597              		.loc 1 471 0
 598 0012 0268     		ldr	r2, [r0]
 599 0014 1368     		ldr	r3, [r2]
 600 0016 23F00E03 		bic	r3, r3, #14
 601 001a 1360     		str	r3, [r2]
 474:Drivers/STM32F1xx_HAL_Driver/Src/stm32f1xx_hal_dma.c **** 
 602              		.loc 1 474 0
 603 001c 0268     		ldr	r2, [r0]
 604 001e 1368     		ldr	r3, [r2]
 605 0020 23F00103 		bic	r3, r3, #1
 606 0024 1360     		str	r3, [r2]
 477:Drivers/STM32F1xx_HAL_Driver/Src/stm32f1xx_hal_dma.c **** 
 607              		.loc 1 477 0
 608 0026 0368     		ldr	r3, [r0]
 609 0028 484A     		ldr	r2, .L73
 610 002a 9342     		cmp	r3, r2
 611 002c 48D9     		bls	.L44
 477:Drivers/STM32F1xx_HAL_Driver/Src/stm32f1xx_hal_dma.c **** 
 612              		.loc 1 477 0 is_stmt 0 discriminator 1
 613 002e 783A     		subs	r2, r2, #120
 614 0030 9342     		cmp	r3, r2
 615 0032 21D0     		beq	.L48
 477:Drivers/STM32F1xx_HAL_Driver/Src/stm32f1xx_hal_dma.c **** 
 616              		.loc 1 477 0 discriminator 3
 617 0034 1432     		adds	r2, r2, #20
 618 0036 9342     		cmp	r3, r2
 619 0038 2DD0     		beq	.L49
ARM GAS  /tmp/ccFYW4Uk.s 			page 29


 477:Drivers/STM32F1xx_HAL_Driver/Src/stm32f1xx_hal_dma.c **** 
 620              		.loc 1 477 0 discriminator 5
 621 003a 1432     		adds	r2, r2, #20
 622 003c 9342     		cmp	r3, r2
 623 003e 2CD0     		beq	.L50
 477:Drivers/STM32F1xx_HAL_Driver/Src/stm32f1xx_hal_dma.c **** 
 624              		.loc 1 477 0 discriminator 7
 625 0040 1432     		adds	r2, r2, #20
 626 0042 9342     		cmp	r3, r2
 627 0044 2CD0     		beq	.L51
 477:Drivers/STM32F1xx_HAL_Driver/Src/stm32f1xx_hal_dma.c **** 
 628              		.loc 1 477 0 discriminator 9
 629 0046 1432     		adds	r2, r2, #20
 630 0048 9342     		cmp	r3, r2
 631 004a 2CD0     		beq	.L52
 477:Drivers/STM32F1xx_HAL_Driver/Src/stm32f1xx_hal_dma.c **** 
 632              		.loc 1 477 0 discriminator 11
 633 004c 1432     		adds	r2, r2, #20
 634 004e 9342     		cmp	r3, r2
 635 0050 2CD0     		beq	.L53
 477:Drivers/STM32F1xx_HAL_Driver/Src/stm32f1xx_hal_dma.c **** 
 636              		.loc 1 477 0 discriminator 15
 637 0052 02F56772 		add	r2, r2, #924
 638 0056 9342     		cmp	r3, r2
 639 0058 2BD0     		beq	.L54
 477:Drivers/STM32F1xx_HAL_Driver/Src/stm32f1xx_hal_dma.c **** 
 640              		.loc 1 477 0 discriminator 17
 641 005a 1432     		adds	r2, r2, #20
 642 005c 9342     		cmp	r3, r2
 643 005e 2AD0     		beq	.L55
 477:Drivers/STM32F1xx_HAL_Driver/Src/stm32f1xx_hal_dma.c **** 
 644              		.loc 1 477 0 discriminator 19
 645 0060 1432     		adds	r2, r2, #20
 646 0062 9342     		cmp	r3, r2
 647 0064 29D0     		beq	.L56
 477:Drivers/STM32F1xx_HAL_Driver/Src/stm32f1xx_hal_dma.c **** 
 648              		.loc 1 477 0 discriminator 21
 649 0066 1432     		adds	r2, r2, #20
 650 0068 9342     		cmp	r3, r2
 651 006a 02D0     		beq	.L71
 477:Drivers/STM32F1xx_HAL_Driver/Src/stm32f1xx_hal_dma.c **** 
 652              		.loc 1 477 0
 653 006c 4FF48032 		mov	r2, #65536
 654 0070 03E0     		b	.L45
 655              	.L71:
 656 0072 4FF48052 		mov	r2, #4096
 657 0076 00E0     		b	.L45
 658              	.L48:
 659 0078 0122     		movs	r2, #1
 660              	.L45:
 477:Drivers/STM32F1xx_HAL_Driver/Src/stm32f1xx_hal_dma.c **** 
 661              		.loc 1 477 0 discriminator 46
 662 007a 354B     		ldr	r3, .L73+4
 663 007c 5A60     		str	r2, [r3, #4]
 664              	.L46:
 480:Drivers/STM32F1xx_HAL_Driver/Src/stm32f1xx_hal_dma.c **** 
 665              		.loc 1 480 0 is_stmt 1
ARM GAS  /tmp/ccFYW4Uk.s 			page 30


 666 007e 0123     		movs	r3, #1
 667 0080 80F82130 		strb	r3, [r0, #33]
 483:Drivers/STM32F1xx_HAL_Driver/Src/stm32f1xx_hal_dma.c **** 
 668              		.loc 1 483 0
 669 0084 0023     		movs	r3, #0
 670 0086 80F82030 		strb	r3, [r0, #32]
 486:Drivers/STM32F1xx_HAL_Driver/Src/stm32f1xx_hal_dma.c ****     {
 671              		.loc 1 486 0
 672 008a 436B     		ldr	r3, [r0, #52]
 673 008c 002B     		cmp	r3, #0
 674 008e 5BD0     		beq	.L69
 488:Drivers/STM32F1xx_HAL_Driver/Src/stm32f1xx_hal_dma.c ****     } 
 675              		.loc 1 488 0
 676 0090 9847     		blx	r3
 677              	.LVL48:
 459:Drivers/STM32F1xx_HAL_Driver/Src/stm32f1xx_hal_dma.c ****   
 678              		.loc 1 459 0
 679 0092 0020     		movs	r0, #0
 680 0094 08BD     		pop	{r3, pc}
 681              	.LVL49:
 682              	.L49:
 477:Drivers/STM32F1xx_HAL_Driver/Src/stm32f1xx_hal_dma.c **** 
 683              		.loc 1 477 0
 684 0096 1022     		movs	r2, #16
 685 0098 EFE7     		b	.L45
 686              	.L50:
 687 009a 4FF48072 		mov	r2, #256
 688 009e ECE7     		b	.L45
 689              	.L51:
 690 00a0 4FF48052 		mov	r2, #4096
 691 00a4 E9E7     		b	.L45
 692              	.L52:
 693 00a6 4FF48032 		mov	r2, #65536
 694 00aa E6E7     		b	.L45
 695              	.L53:
 696 00ac 4FF48012 		mov	r2, #1048576
 697 00b0 E3E7     		b	.L45
 698              	.L54:
 699 00b2 0122     		movs	r2, #1
 700 00b4 E1E7     		b	.L45
 701              	.L55:
 702 00b6 1022     		movs	r2, #16
 703 00b8 DFE7     		b	.L45
 704              	.L56:
 705 00ba 4FF48072 		mov	r2, #256
 706 00be DCE7     		b	.L45
 707              	.L44:
 477:Drivers/STM32F1xx_HAL_Driver/Src/stm32f1xx_hal_dma.c **** 
 708              		.loc 1 477 0 is_stmt 0 discriminator 2
 709 00c0 244A     		ldr	r2, .L73+8
 710 00c2 9342     		cmp	r3, r2
 711 00c4 24D0     		beq	.L58
 477:Drivers/STM32F1xx_HAL_Driver/Src/stm32f1xx_hal_dma.c **** 
 712              		.loc 1 477 0 discriminator 47
 713 00c6 1432     		adds	r2, r2, #20
 714 00c8 9342     		cmp	r3, r2
 715 00ca 25D0     		beq	.L59
ARM GAS  /tmp/ccFYW4Uk.s 			page 31


 477:Drivers/STM32F1xx_HAL_Driver/Src/stm32f1xx_hal_dma.c **** 
 716              		.loc 1 477 0 discriminator 49
 717 00cc 1432     		adds	r2, r2, #20
 718 00ce 9342     		cmp	r3, r2
 719 00d0 24D0     		beq	.L60
 477:Drivers/STM32F1xx_HAL_Driver/Src/stm32f1xx_hal_dma.c **** 
 720              		.loc 1 477 0 discriminator 51
 721 00d2 1432     		adds	r2, r2, #20
 722 00d4 9342     		cmp	r3, r2
 723 00d6 24D0     		beq	.L61
 477:Drivers/STM32F1xx_HAL_Driver/Src/stm32f1xx_hal_dma.c **** 
 724              		.loc 1 477 0 discriminator 53
 725 00d8 1432     		adds	r2, r2, #20
 726 00da 9342     		cmp	r3, r2
 727 00dc 24D0     		beq	.L62
 477:Drivers/STM32F1xx_HAL_Driver/Src/stm32f1xx_hal_dma.c **** 
 728              		.loc 1 477 0 discriminator 55
 729 00de 1432     		adds	r2, r2, #20
 730 00e0 9342     		cmp	r3, r2
 731 00e2 24D0     		beq	.L63
 477:Drivers/STM32F1xx_HAL_Driver/Src/stm32f1xx_hal_dma.c **** 
 732              		.loc 1 477 0 discriminator 57
 733 00e4 1432     		adds	r2, r2, #20
 734 00e6 9342     		cmp	r3, r2
 735 00e8 24D0     		beq	.L64
 477:Drivers/STM32F1xx_HAL_Driver/Src/stm32f1xx_hal_dma.c **** 
 736              		.loc 1 477 0 discriminator 59
 737 00ea 02F56272 		add	r2, r2, #904
 738 00ee 9342     		cmp	r3, r2
 739 00f0 23D0     		beq	.L65
 477:Drivers/STM32F1xx_HAL_Driver/Src/stm32f1xx_hal_dma.c **** 
 740              		.loc 1 477 0 discriminator 61
 741 00f2 1432     		adds	r2, r2, #20
 742 00f4 9342     		cmp	r3, r2
 743 00f6 22D0     		beq	.L66
 477:Drivers/STM32F1xx_HAL_Driver/Src/stm32f1xx_hal_dma.c **** 
 744              		.loc 1 477 0 discriminator 63
 745 00f8 1432     		adds	r2, r2, #20
 746 00fa 9342     		cmp	r3, r2
 747 00fc 21D0     		beq	.L67
 477:Drivers/STM32F1xx_HAL_Driver/Src/stm32f1xx_hal_dma.c **** 
 748              		.loc 1 477 0 discriminator 65
 749 00fe 1432     		adds	r2, r2, #20
 750 0100 9342     		cmp	r3, r2
 751 0102 02D0     		beq	.L72
 477:Drivers/STM32F1xx_HAL_Driver/Src/stm32f1xx_hal_dma.c **** 
 752              		.loc 1 477 0
 753 0104 4FF48032 		mov	r2, #65536
 754 0108 03E0     		b	.L47
 755              	.L72:
 756 010a 4FF48052 		mov	r2, #4096
 757 010e 00E0     		b	.L47
 758              	.L58:
 759 0110 0122     		movs	r2, #1
 760              	.L47:
 477:Drivers/STM32F1xx_HAL_Driver/Src/stm32f1xx_hal_dma.c **** 
 761              		.loc 1 477 0 discriminator 90
ARM GAS  /tmp/ccFYW4Uk.s 			page 32


 762 0112 114B     		ldr	r3, .L73+12
 763 0114 5A60     		str	r2, [r3, #4]
 764 0116 B2E7     		b	.L46
 765              	.L59:
 477:Drivers/STM32F1xx_HAL_Driver/Src/stm32f1xx_hal_dma.c **** 
 766              		.loc 1 477 0
 767 0118 1022     		movs	r2, #16
 768 011a FAE7     		b	.L47
 769              	.L60:
 770 011c 4FF48072 		mov	r2, #256
 771 0120 F7E7     		b	.L47
 772              	.L61:
 773 0122 4FF48052 		mov	r2, #4096
 774 0126 F4E7     		b	.L47
 775              	.L62:
 776 0128 4FF48032 		mov	r2, #65536
 777 012c F1E7     		b	.L47
 778              	.L63:
 779 012e 4FF48012 		mov	r2, #1048576
 780 0132 EEE7     		b	.L47
 781              	.L64:
 782 0134 4FF08072 		mov	r2, #16777216
 783 0138 EBE7     		b	.L47
 784              	.L65:
 785 013a 0122     		movs	r2, #1
 786 013c E9E7     		b	.L47
 787              	.L66:
 788 013e 1022     		movs	r2, #16
 789 0140 E7E7     		b	.L47
 790              	.L67:
 791 0142 4FF48072 		mov	r2, #256
 792 0146 E4E7     		b	.L47
 793              	.L69:
 459:Drivers/STM32F1xx_HAL_Driver/Src/stm32f1xx_hal_dma.c ****   
 794              		.loc 1 459 0 is_stmt 1
 795 0148 0020     		movs	r0, #0
 796              	.LVL50:
 492:Drivers/STM32F1xx_HAL_Driver/Src/stm32f1xx_hal_dma.c **** 
 797              		.loc 1 492 0
 798 014a 08BD     		pop	{r3, pc}
 799              	.L74:
 800              		.align	2
 801              	.L73:
 802 014c 80000240 		.word	1073873024
 803 0150 00040240 		.word	1073873920
 804 0154 08000240 		.word	1073872904
 805 0158 00000240 		.word	1073872896
 806              		.cfi_endproc
 807              	.LFE70:
 809              		.section	.text.HAL_DMA_PollForTransfer,"ax",%progbits
 810              		.align	1
 811              		.global	HAL_DMA_PollForTransfer
 812              		.syntax unified
 813              		.thumb
 814              		.thumb_func
 815              		.fpu softvfp
 817              	HAL_DMA_PollForTransfer:
ARM GAS  /tmp/ccFYW4Uk.s 			page 33


 818              	.LFB71:
 503:Drivers/STM32F1xx_HAL_Driver/Src/stm32f1xx_hal_dma.c ****   uint32_t temp;
 819              		.loc 1 503 0
 820              		.cfi_startproc
 821              		@ args = 0, pretend = 0, frame = 0
 822              		@ frame_needed = 0, uses_anonymous_args = 0
 823              	.LVL51:
 507:Drivers/STM32F1xx_HAL_Driver/Src/stm32f1xx_hal_dma.c ****   {
 824              		.loc 1 507 0
 825 0000 90F82130 		ldrb	r3, [r0, #33]	@ zero_extendqisi2
 826 0004 022B     		cmp	r3, #2
 827 0006 06D0     		beq	.L76
 510:Drivers/STM32F1xx_HAL_Driver/Src/stm32f1xx_hal_dma.c ****     __HAL_UNLOCK(hdma);
 828              		.loc 1 510 0
 829 0008 0423     		movs	r3, #4
 830 000a 8363     		str	r3, [r0, #56]
 511:Drivers/STM32F1xx_HAL_Driver/Src/stm32f1xx_hal_dma.c ****     return HAL_ERROR;
 831              		.loc 1 511 0
 832 000c 0023     		movs	r3, #0
 833 000e 80F82030 		strb	r3, [r0, #32]
 512:Drivers/STM32F1xx_HAL_Driver/Src/stm32f1xx_hal_dma.c ****   }
 834              		.loc 1 512 0
 835 0012 0120     		movs	r0, #1
 836              	.LVL52:
 837 0014 7047     		bx	lr
 838              	.LVL53:
 839              	.L76:
 503:Drivers/STM32F1xx_HAL_Driver/Src/stm32f1xx_hal_dma.c ****   uint32_t temp;
 840              		.loc 1 503 0
 841 0016 2DE9F041 		push	{r4, r5, r6, r7, r8, lr}
 842              		.cfi_def_cfa_offset 24
 843              		.cfi_offset 4, -24
 844              		.cfi_offset 5, -20
 845              		.cfi_offset 6, -16
 846              		.cfi_offset 7, -12
 847              		.cfi_offset 8, -8
 848              		.cfi_offset 14, -4
 516:Drivers/STM32F1xx_HAL_Driver/Src/stm32f1xx_hal_dma.c ****   {
 849              		.loc 1 516 0
 850 001a 0368     		ldr	r3, [r0]
 851 001c 1C68     		ldr	r4, [r3]
 852 001e 14F0200F 		tst	r4, #32
 853 0022 25D1     		bne	.L189
 523:Drivers/STM32F1xx_HAL_Driver/Src/stm32f1xx_hal_dma.c ****   {
 854              		.loc 1 523 0
 855 0024 69BB     		cbnz	r1, .L79
 526:Drivers/STM32F1xx_HAL_Driver/Src/stm32f1xx_hal_dma.c ****   }
 856              		.loc 1 526 0
 857 0026 AE4C     		ldr	r4, .L201
 858 0028 A342     		cmp	r3, r4
 859 002a 52D0     		beq	.L101
 526:Drivers/STM32F1xx_HAL_Driver/Src/stm32f1xx_hal_dma.c ****   }
 860              		.loc 1 526 0 is_stmt 0 discriminator 1
 861 002c 1434     		adds	r4, r4, #20
 862 002e A342     		cmp	r3, r4
 863 0030 57D0     		beq	.L102
 526:Drivers/STM32F1xx_HAL_Driver/Src/stm32f1xx_hal_dma.c ****   }
ARM GAS  /tmp/ccFYW4Uk.s 			page 34


 864              		.loc 1 526 0 discriminator 3
 865 0032 1434     		adds	r4, r4, #20
 866 0034 A342     		cmp	r3, r4
 867 0036 56D0     		beq	.L103
 526:Drivers/STM32F1xx_HAL_Driver/Src/stm32f1xx_hal_dma.c ****   }
 868              		.loc 1 526 0 discriminator 5
 869 0038 1434     		adds	r4, r4, #20
 870 003a A342     		cmp	r3, r4
 871 003c 56D0     		beq	.L104
 526:Drivers/STM32F1xx_HAL_Driver/Src/stm32f1xx_hal_dma.c ****   }
 872              		.loc 1 526 0 discriminator 7
 873 003e 1434     		adds	r4, r4, #20
 874 0040 A342     		cmp	r3, r4
 875 0042 56D0     		beq	.L105
 526:Drivers/STM32F1xx_HAL_Driver/Src/stm32f1xx_hal_dma.c ****   }
 876              		.loc 1 526 0 discriminator 9
 877 0044 1434     		adds	r4, r4, #20
 878 0046 A342     		cmp	r3, r4
 879 0048 56D0     		beq	.L106
 526:Drivers/STM32F1xx_HAL_Driver/Src/stm32f1xx_hal_dma.c ****   }
 880              		.loc 1 526 0 discriminator 11
 881 004a 1434     		adds	r4, r4, #20
 882 004c A342     		cmp	r3, r4
 883 004e 56D0     		beq	.L107
 526:Drivers/STM32F1xx_HAL_Driver/Src/stm32f1xx_hal_dma.c ****   }
 884              		.loc 1 526 0 discriminator 13
 885 0050 04F56274 		add	r4, r4, #904
 886 0054 A342     		cmp	r3, r4
 887 0056 55D0     		beq	.L108
 526:Drivers/STM32F1xx_HAL_Driver/Src/stm32f1xx_hal_dma.c ****   }
 888              		.loc 1 526 0 discriminator 15
 889 0058 1434     		adds	r4, r4, #20
 890 005a A342     		cmp	r3, r4
 891 005c 54D0     		beq	.L109
 526:Drivers/STM32F1xx_HAL_Driver/Src/stm32f1xx_hal_dma.c ****   }
 892              		.loc 1 526 0 discriminator 17
 893 005e 1434     		adds	r4, r4, #20
 894 0060 A342     		cmp	r3, r4
 895 0062 53D0     		beq	.L110
 526:Drivers/STM32F1xx_HAL_Driver/Src/stm32f1xx_hal_dma.c ****   }
 896              		.loc 1 526 0 discriminator 19
 897 0064 1434     		adds	r4, r4, #20
 898 0066 A342     		cmp	r3, r4
 899 0068 08D0     		beq	.L190
 526:Drivers/STM32F1xx_HAL_Driver/Src/stm32f1xx_hal_dma.c ****   }
 900              		.loc 1 526 0
 901 006a 4FF40036 		mov	r6, #131072
 902 006e 31E0     		b	.L80
 903              	.L189:
 518:Drivers/STM32F1xx_HAL_Driver/Src/stm32f1xx_hal_dma.c ****     return HAL_ERROR;
 904              		.loc 1 518 0 is_stmt 1
 905 0070 4FF48073 		mov	r3, #256
 906 0074 8363     		str	r3, [r0, #56]
 519:Drivers/STM32F1xx_HAL_Driver/Src/stm32f1xx_hal_dma.c ****   }
 907              		.loc 1 519 0
 908 0076 0120     		movs	r0, #1
 909              	.LVL54:
ARM GAS  /tmp/ccFYW4Uk.s 			page 35


 910 0078 BDE8F081 		pop	{r4, r5, r6, r7, r8, pc}
 911              	.LVL55:
 912              	.L190:
 526:Drivers/STM32F1xx_HAL_Driver/Src/stm32f1xx_hal_dma.c ****   }
 913              		.loc 1 526 0
 914 007c 4FF40056 		mov	r6, #8192
 915 0080 28E0     		b	.L80
 916              	.L79:
 531:Drivers/STM32F1xx_HAL_Driver/Src/stm32f1xx_hal_dma.c ****   }
 917              		.loc 1 531 0
 918 0082 974C     		ldr	r4, .L201
 919 0084 A342     		cmp	r3, r4
 920 0086 44D0     		beq	.L112
 531:Drivers/STM32F1xx_HAL_Driver/Src/stm32f1xx_hal_dma.c ****   }
 921              		.loc 1 531 0 is_stmt 0 discriminator 1
 922 0088 1434     		adds	r4, r4, #20
 923 008a A342     		cmp	r3, r4
 924 008c 43D0     		beq	.L113
 531:Drivers/STM32F1xx_HAL_Driver/Src/stm32f1xx_hal_dma.c ****   }
 925              		.loc 1 531 0 discriminator 3
 926 008e 1434     		adds	r4, r4, #20
 927 0090 A342     		cmp	r3, r4
 928 0092 42D0     		beq	.L114
 531:Drivers/STM32F1xx_HAL_Driver/Src/stm32f1xx_hal_dma.c ****   }
 929              		.loc 1 531 0 discriminator 5
 930 0094 1434     		adds	r4, r4, #20
 931 0096 A342     		cmp	r3, r4
 932 0098 42D0     		beq	.L115
 531:Drivers/STM32F1xx_HAL_Driver/Src/stm32f1xx_hal_dma.c ****   }
 933              		.loc 1 531 0 discriminator 7
 934 009a 1434     		adds	r4, r4, #20
 935 009c A342     		cmp	r3, r4
 936 009e 42D0     		beq	.L116
 531:Drivers/STM32F1xx_HAL_Driver/Src/stm32f1xx_hal_dma.c ****   }
 937              		.loc 1 531 0 discriminator 9
 938 00a0 1434     		adds	r4, r4, #20
 939 00a2 A342     		cmp	r3, r4
 940 00a4 42D0     		beq	.L117
 531:Drivers/STM32F1xx_HAL_Driver/Src/stm32f1xx_hal_dma.c ****   }
 941              		.loc 1 531 0 discriminator 11
 942 00a6 1434     		adds	r4, r4, #20
 943 00a8 A342     		cmp	r3, r4
 944 00aa 42D0     		beq	.L118
 531:Drivers/STM32F1xx_HAL_Driver/Src/stm32f1xx_hal_dma.c ****   }
 945              		.loc 1 531 0 discriminator 13
 946 00ac 04F56274 		add	r4, r4, #904
 947 00b0 A342     		cmp	r3, r4
 948 00b2 41D0     		beq	.L119
 531:Drivers/STM32F1xx_HAL_Driver/Src/stm32f1xx_hal_dma.c ****   }
 949              		.loc 1 531 0 discriminator 15
 950 00b4 1434     		adds	r4, r4, #20
 951 00b6 A342     		cmp	r3, r4
 952 00b8 40D0     		beq	.L120
 531:Drivers/STM32F1xx_HAL_Driver/Src/stm32f1xx_hal_dma.c ****   }
 953              		.loc 1 531 0 discriminator 17
 954 00ba 1434     		adds	r4, r4, #20
 955 00bc A342     		cmp	r3, r4
ARM GAS  /tmp/ccFYW4Uk.s 			page 36


 956 00be 3FD0     		beq	.L121
 531:Drivers/STM32F1xx_HAL_Driver/Src/stm32f1xx_hal_dma.c ****   }
 957              		.loc 1 531 0 discriminator 19
 958 00c0 1434     		adds	r4, r4, #20
 959 00c2 A342     		cmp	r3, r4
 960 00c4 02D0     		beq	.L191
 531:Drivers/STM32F1xx_HAL_Driver/Src/stm32f1xx_hal_dma.c ****   }
 961              		.loc 1 531 0
 962 00c6 4FF48026 		mov	r6, #262144
 963 00ca 03E0     		b	.L80
 964              	.L191:
 965 00cc 4FF48046 		mov	r6, #16384
 966 00d0 00E0     		b	.L80
 967              	.L101:
 526:Drivers/STM32F1xx_HAL_Driver/Src/stm32f1xx_hal_dma.c ****   }
 968              		.loc 1 526 0 is_stmt 1
 969 00d2 0226     		movs	r6, #2
 970              	.L80:
 971 00d4 1546     		mov	r5, r2
 972 00d6 0F46     		mov	r7, r1
 973 00d8 0446     		mov	r4, r0
 974              	.LVL56:
 535:Drivers/STM32F1xx_HAL_Driver/Src/stm32f1xx_hal_dma.c **** 
 975              		.loc 1 535 0
 976 00da FFF7FEFF 		bl	HAL_GetTick
 977              	.LVL57:
 978 00de 8046     		mov	r8, r0
 979              	.LVL58:
 537:Drivers/STM32F1xx_HAL_Driver/Src/stm32f1xx_hal_dma.c ****   {
 980              		.loc 1 537 0
 981 00e0 40E0     		b	.L87
 982              	.LVL59:
 983              	.L102:
 526:Drivers/STM32F1xx_HAL_Driver/Src/stm32f1xx_hal_dma.c ****   }
 984              		.loc 1 526 0
 985 00e2 2026     		movs	r6, #32
 986 00e4 F6E7     		b	.L80
 987              	.L103:
 988 00e6 4FF40076 		mov	r6, #512
 989 00ea F3E7     		b	.L80
 990              	.L104:
 991 00ec 4FF40056 		mov	r6, #8192
 992 00f0 F0E7     		b	.L80
 993              	.L105:
 994 00f2 4FF40036 		mov	r6, #131072
 995 00f6 EDE7     		b	.L80
 996              	.L106:
 997 00f8 4FF40016 		mov	r6, #2097152
 998 00fc EAE7     		b	.L80
 999              	.L107:
 1000 00fe 4FF00076 		mov	r6, #33554432
 1001 0102 E7E7     		b	.L80
 1002              	.L108:
 1003 0104 0226     		movs	r6, #2
 1004 0106 E5E7     		b	.L80
 1005              	.L109:
 1006 0108 2026     		movs	r6, #32
ARM GAS  /tmp/ccFYW4Uk.s 			page 37


 1007 010a E3E7     		b	.L80
 1008              	.L110:
 1009 010c 4FF40076 		mov	r6, #512
 1010 0110 E0E7     		b	.L80
 1011              	.L112:
 531:Drivers/STM32F1xx_HAL_Driver/Src/stm32f1xx_hal_dma.c ****   }
 1012              		.loc 1 531 0
 1013 0112 0426     		movs	r6, #4
 1014 0114 DEE7     		b	.L80
 1015              	.L113:
 1016 0116 4026     		movs	r6, #64
 1017 0118 DCE7     		b	.L80
 1018              	.L114:
 1019 011a 4FF48066 		mov	r6, #1024
 1020 011e D9E7     		b	.L80
 1021              	.L115:
 1022 0120 4FF48046 		mov	r6, #16384
 1023 0124 D6E7     		b	.L80
 1024              	.L116:
 1025 0126 4FF48026 		mov	r6, #262144
 1026 012a D3E7     		b	.L80
 1027              	.L117:
 1028 012c 4FF48006 		mov	r6, #4194304
 1029 0130 D0E7     		b	.L80
 1030              	.L118:
 1031 0132 4FF08066 		mov	r6, #67108864
 1032 0136 CDE7     		b	.L80
 1033              	.L119:
 1034 0138 0426     		movs	r6, #4
 1035 013a CBE7     		b	.L80
 1036              	.L120:
 1037 013c 4026     		movs	r6, #64
 1038 013e C9E7     		b	.L80
 1039              	.L121:
 1040 0140 4FF48066 		mov	r6, #1024
 1041 0144 C6E7     		b	.L80
 1042              	.LVL60:
 1043              	.L195:
 539:Drivers/STM32F1xx_HAL_Driver/Src/stm32f1xx_hal_dma.c ****     {
 1044              		.loc 1 539 0
 1045 0146 4FF40043 		mov	r3, #32768
 1046 014a 00E0     		b	.L83
 1047              	.L123:
 1048 014c 0823     		movs	r3, #8
 1049              	.L83:
 539:Drivers/STM32F1xx_HAL_Driver/Src/stm32f1xx_hal_dma.c ****     {
 1050              		.loc 1 539 0 is_stmt 0 discriminator 46
 1051 014e 1342     		tst	r3, r2
 1052 0150 14BF     		ite	ne
 1053 0152 0123     		movne	r3, #1
 1054 0154 0023     		moveq	r3, #0
 1055              	.L84:
 539:Drivers/STM32F1xx_HAL_Driver/Src/stm32f1xx_hal_dma.c ****     {
 1056              		.loc 1 539 0 discriminator 92
 1057 0156 002B     		cmp	r3, #0
 1058 0158 40F09780 		bne	.L192
 558:Drivers/STM32F1xx_HAL_Driver/Src/stm32f1xx_hal_dma.c ****     {
ARM GAS  /tmp/ccFYW4Uk.s 			page 38


 1059              		.loc 1 558 0 is_stmt 1
 1060 015c B5F1FF3F 		cmp	r5, #-1
 1061 0160 40F0A380 		bne	.L193
 1062              	.L87:
 537:Drivers/STM32F1xx_HAL_Driver/Src/stm32f1xx_hal_dma.c ****   {
 1063              		.loc 1 537 0
 1064 0164 2368     		ldr	r3, [r4]
 1065 0166 5F48     		ldr	r0, .L201+4
 1066 0168 8342     		cmp	r3, r0
 1067 016a 40F2B280 		bls	.L89
 537:Drivers/STM32F1xx_HAL_Driver/Src/stm32f1xx_hal_dma.c ****   {
 1068              		.loc 1 537 0 is_stmt 0 discriminator 1
 1069 016e 5E4A     		ldr	r2, .L201+8
 1070 0170 1268     		ldr	r2, [r2]
 1071 0172 1642     		tst	r6, r2
 1072 0174 0CBF     		ite	eq
 1073 0176 0120     		moveq	r0, #1
 1074 0178 0020     		movne	r0, #0
 1075              	.L90:
 537:Drivers/STM32F1xx_HAL_Driver/Src/stm32f1xx_hal_dma.c ****   {
 1076              		.loc 1 537 0 discriminator 4
 1077 017a 0028     		cmp	r0, #0
 1078 017c 00F0B880 		beq	.L194
 539:Drivers/STM32F1xx_HAL_Driver/Src/stm32f1xx_hal_dma.c ****     {
 1079              		.loc 1 539 0 is_stmt 1
 1080 0180 584A     		ldr	r2, .L201+4
 1081 0182 9342     		cmp	r3, r2
 1082 0184 39D9     		bls	.L82
 539:Drivers/STM32F1xx_HAL_Driver/Src/stm32f1xx_hal_dma.c ****     {
 1083              		.loc 1 539 0 is_stmt 0 discriminator 1
 1084 0186 02F56072 		add	r2, r2, #896
 1085 018a 1268     		ldr	r2, [r2]
 1086 018c 5449     		ldr	r1, .L201
 1087 018e 8B42     		cmp	r3, r1
 1088 0190 DCD0     		beq	.L123
 539:Drivers/STM32F1xx_HAL_Driver/Src/stm32f1xx_hal_dma.c ****     {
 1089              		.loc 1 539 0 discriminator 3
 1090 0192 1431     		adds	r1, r1, #20
 1091 0194 8B42     		cmp	r3, r1
 1092 0196 1BD0     		beq	.L124
 539:Drivers/STM32F1xx_HAL_Driver/Src/stm32f1xx_hal_dma.c ****     {
 1093              		.loc 1 539 0 discriminator 5
 1094 0198 1431     		adds	r1, r1, #20
 1095 019a 8B42     		cmp	r3, r1
 1096 019c 1AD0     		beq	.L125
 539:Drivers/STM32F1xx_HAL_Driver/Src/stm32f1xx_hal_dma.c ****     {
 1097              		.loc 1 539 0 discriminator 7
 1098 019e 1431     		adds	r1, r1, #20
 1099 01a0 8B42     		cmp	r3, r1
 1100 01a2 1AD0     		beq	.L126
 539:Drivers/STM32F1xx_HAL_Driver/Src/stm32f1xx_hal_dma.c ****     {
 1101              		.loc 1 539 0 discriminator 9
 1102 01a4 1431     		adds	r1, r1, #20
 1103 01a6 8B42     		cmp	r3, r1
 1104 01a8 1AD0     		beq	.L127
 539:Drivers/STM32F1xx_HAL_Driver/Src/stm32f1xx_hal_dma.c ****     {
 1105              		.loc 1 539 0 discriminator 11
ARM GAS  /tmp/ccFYW4Uk.s 			page 39


 1106 01aa 1431     		adds	r1, r1, #20
 1107 01ac 8B42     		cmp	r3, r1
 1108 01ae 1AD0     		beq	.L128
 539:Drivers/STM32F1xx_HAL_Driver/Src/stm32f1xx_hal_dma.c ****     {
 1109              		.loc 1 539 0 discriminator 15
 1110 01b0 01F56771 		add	r1, r1, #924
 1111 01b4 8B42     		cmp	r3, r1
 1112 01b6 19D0     		beq	.L129
 539:Drivers/STM32F1xx_HAL_Driver/Src/stm32f1xx_hal_dma.c ****     {
 1113              		.loc 1 539 0 discriminator 17
 1114 01b8 1431     		adds	r1, r1, #20
 1115 01ba 8B42     		cmp	r3, r1
 1116 01bc 18D0     		beq	.L130
 539:Drivers/STM32F1xx_HAL_Driver/Src/stm32f1xx_hal_dma.c ****     {
 1117              		.loc 1 539 0 discriminator 19
 1118 01be 1431     		adds	r1, r1, #20
 1119 01c0 8B42     		cmp	r3, r1
 1120 01c2 17D0     		beq	.L131
 539:Drivers/STM32F1xx_HAL_Driver/Src/stm32f1xx_hal_dma.c ****     {
 1121              		.loc 1 539 0 discriminator 21
 1122 01c4 1431     		adds	r1, r1, #20
 1123 01c6 8B42     		cmp	r3, r1
 1124 01c8 BDD0     		beq	.L195
 539:Drivers/STM32F1xx_HAL_Driver/Src/stm32f1xx_hal_dma.c ****     {
 1125              		.loc 1 539 0
 1126 01ca 4FF40023 		mov	r3, #524288
 1127 01ce BEE7     		b	.L83
 1128              	.L124:
 1129 01d0 8023     		movs	r3, #128
 1130 01d2 BCE7     		b	.L83
 1131              	.L125:
 1132 01d4 4FF40063 		mov	r3, #2048
 1133 01d8 B9E7     		b	.L83
 1134              	.L126:
 1135 01da 4FF40043 		mov	r3, #32768
 1136 01de B6E7     		b	.L83
 1137              	.L127:
 1138 01e0 4FF40023 		mov	r3, #524288
 1139 01e4 B3E7     		b	.L83
 1140              	.L128:
 1141 01e6 4FF40003 		mov	r3, #8388608
 1142 01ea B0E7     		b	.L83
 1143              	.L129:
 1144 01ec 0823     		movs	r3, #8
 1145 01ee AEE7     		b	.L83
 1146              	.L130:
 1147 01f0 8023     		movs	r3, #128
 1148 01f2 ACE7     		b	.L83
 1149              	.L131:
 1150 01f4 4FF40063 		mov	r3, #2048
 1151 01f8 A9E7     		b	.L83
 1152              	.L82:
 539:Drivers/STM32F1xx_HAL_Driver/Src/stm32f1xx_hal_dma.c ****     {
 1153              		.loc 1 539 0 discriminator 2
 1154 01fa 3C4A     		ldr	r2, .L201+12
 1155 01fc 1268     		ldr	r2, [r2]
 1156 01fe 3849     		ldr	r1, .L201
ARM GAS  /tmp/ccFYW4Uk.s 			page 40


 1157 0200 8B42     		cmp	r3, r1
 1158 0202 24D0     		beq	.L133
 539:Drivers/STM32F1xx_HAL_Driver/Src/stm32f1xx_hal_dma.c ****     {
 1159              		.loc 1 539 0 discriminator 48
 1160 0204 1431     		adds	r1, r1, #20
 1161 0206 8B42     		cmp	r3, r1
 1162 0208 27D0     		beq	.L134
 539:Drivers/STM32F1xx_HAL_Driver/Src/stm32f1xx_hal_dma.c ****     {
 1163              		.loc 1 539 0 discriminator 50
 1164 020a 1431     		adds	r1, r1, #20
 1165 020c 8B42     		cmp	r3, r1
 1166 020e 26D0     		beq	.L135
 539:Drivers/STM32F1xx_HAL_Driver/Src/stm32f1xx_hal_dma.c ****     {
 1167              		.loc 1 539 0 discriminator 52
 1168 0210 1431     		adds	r1, r1, #20
 1169 0212 8B42     		cmp	r3, r1
 1170 0214 26D0     		beq	.L136
 539:Drivers/STM32F1xx_HAL_Driver/Src/stm32f1xx_hal_dma.c ****     {
 1171              		.loc 1 539 0 discriminator 54
 1172 0216 1431     		adds	r1, r1, #20
 1173 0218 8B42     		cmp	r3, r1
 1174 021a 26D0     		beq	.L137
 539:Drivers/STM32F1xx_HAL_Driver/Src/stm32f1xx_hal_dma.c ****     {
 1175              		.loc 1 539 0 discriminator 56
 1176 021c 1431     		adds	r1, r1, #20
 1177 021e 8B42     		cmp	r3, r1
 1178 0220 26D0     		beq	.L138
 539:Drivers/STM32F1xx_HAL_Driver/Src/stm32f1xx_hal_dma.c ****     {
 1179              		.loc 1 539 0 discriminator 58
 1180 0222 1431     		adds	r1, r1, #20
 1181 0224 8B42     		cmp	r3, r1
 1182 0226 26D0     		beq	.L139
 539:Drivers/STM32F1xx_HAL_Driver/Src/stm32f1xx_hal_dma.c ****     {
 1183              		.loc 1 539 0 discriminator 60
 1184 0228 01F56271 		add	r1, r1, #904
 1185 022c 8B42     		cmp	r3, r1
 1186 022e 25D0     		beq	.L140
 539:Drivers/STM32F1xx_HAL_Driver/Src/stm32f1xx_hal_dma.c ****     {
 1187              		.loc 1 539 0 discriminator 62
 1188 0230 1431     		adds	r1, r1, #20
 1189 0232 8B42     		cmp	r3, r1
 1190 0234 24D0     		beq	.L141
 539:Drivers/STM32F1xx_HAL_Driver/Src/stm32f1xx_hal_dma.c ****     {
 1191              		.loc 1 539 0 discriminator 64
 1192 0236 1431     		adds	r1, r1, #20
 1193 0238 8B42     		cmp	r3, r1
 1194 023a 23D0     		beq	.L142
 539:Drivers/STM32F1xx_HAL_Driver/Src/stm32f1xx_hal_dma.c ****     {
 1195              		.loc 1 539 0 discriminator 66
 1196 023c 1431     		adds	r1, r1, #20
 1197 023e 8B42     		cmp	r3, r1
 1198 0240 02D0     		beq	.L196
 539:Drivers/STM32F1xx_HAL_Driver/Src/stm32f1xx_hal_dma.c ****     {
 1199              		.loc 1 539 0
 1200 0242 4FF40023 		mov	r3, #524288
 1201 0246 03E0     		b	.L85
 1202              	.L196:
ARM GAS  /tmp/ccFYW4Uk.s 			page 41


 1203 0248 4FF40043 		mov	r3, #32768
 1204 024c 00E0     		b	.L85
 1205              	.L133:
 1206 024e 0823     		movs	r3, #8
 1207              	.L85:
 539:Drivers/STM32F1xx_HAL_Driver/Src/stm32f1xx_hal_dma.c ****     {
 1208              		.loc 1 539 0 discriminator 91
 1209 0250 1342     		tst	r3, r2
 1210 0252 14BF     		ite	ne
 1211 0254 0123     		movne	r3, #1
 1212 0256 0023     		moveq	r3, #0
 1213 0258 7DE7     		b	.L84
 1214              	.L134:
 539:Drivers/STM32F1xx_HAL_Driver/Src/stm32f1xx_hal_dma.c ****     {
 1215              		.loc 1 539 0
 1216 025a 8023     		movs	r3, #128
 1217 025c F8E7     		b	.L85
 1218              	.L135:
 1219 025e 4FF40063 		mov	r3, #2048
 1220 0262 F5E7     		b	.L85
 1221              	.L136:
 1222 0264 4FF40043 		mov	r3, #32768
 1223 0268 F2E7     		b	.L85
 1224              	.L137:
 1225 026a 4FF40023 		mov	r3, #524288
 1226 026e EFE7     		b	.L85
 1227              	.L138:
 1228 0270 4FF40003 		mov	r3, #8388608
 1229 0274 ECE7     		b	.L85
 1230              	.L139:
 1231 0276 4FF00063 		mov	r3, #134217728
 1232 027a E9E7     		b	.L85
 1233              	.L140:
 1234 027c 0823     		movs	r3, #8
 1235 027e E7E7     		b	.L85
 1236              	.L141:
 1237 0280 8023     		movs	r3, #128
 1238 0282 E5E7     		b	.L85
 1239              	.L142:
 1240 0284 4FF40063 		mov	r3, #2048
 1241 0288 E2E7     		b	.L85
 1242              	.L192:
 544:Drivers/STM32F1xx_HAL_Driver/Src/stm32f1xx_hal_dma.c **** 
 1243              		.loc 1 544 0 is_stmt 1
 1244 028a E26B     		ldr	r2, [r4, #60]
 1245 028c 236C     		ldr	r3, [r4, #64]
 1246 028e 0120     		movs	r0, #1
 1247 0290 00FA03F3 		lsl	r3, r0, r3
 1248 0294 5360     		str	r3, [r2, #4]
 547:Drivers/STM32F1xx_HAL_Driver/Src/stm32f1xx_hal_dma.c **** 
 1249              		.loc 1 547 0
 1250 0296 A36B     		ldr	r3, [r4, #56]
 1251 0298 0343     		orrs	r3, r3, r0
 1252 029a A363     		str	r3, [r4, #56]
 550:Drivers/STM32F1xx_HAL_Driver/Src/stm32f1xx_hal_dma.c **** 
 1253              		.loc 1 550 0
 1254 029c 84F82100 		strb	r0, [r4, #33]
ARM GAS  /tmp/ccFYW4Uk.s 			page 42


 553:Drivers/STM32F1xx_HAL_Driver/Src/stm32f1xx_hal_dma.c **** 
 1255              		.loc 1 553 0
 1256 02a0 0023     		movs	r3, #0
 1257 02a2 84F82030 		strb	r3, [r4, #32]
 555:Drivers/STM32F1xx_HAL_Driver/Src/stm32f1xx_hal_dma.c ****     }
 1258              		.loc 1 555 0
 1259 02a6 BDE8F081 		pop	{r4, r5, r6, r7, r8, pc}
 1260              	.LVL61:
 1261              	.L193:
 560:Drivers/STM32F1xx_HAL_Driver/Src/stm32f1xx_hal_dma.c ****       {
 1262              		.loc 1 560 0
 1263 02aa 35B1     		cbz	r5, .L88
 560:Drivers/STM32F1xx_HAL_Driver/Src/stm32f1xx_hal_dma.c ****       {
 1264              		.loc 1 560 0 is_stmt 0 discriminator 1
 1265 02ac FFF7FEFF 		bl	HAL_GetTick
 1266              	.LVL62:
 1267 02b0 A0EB0800 		sub	r0, r0, r8
 1268 02b4 8542     		cmp	r5, r0
 1269 02b6 BFF455AF 		bcs	.L87
 1270              	.L88:
 563:Drivers/STM32F1xx_HAL_Driver/Src/stm32f1xx_hal_dma.c **** 
 1271              		.loc 1 563 0 is_stmt 1
 1272 02ba A36B     		ldr	r3, [r4, #56]
 1273 02bc 43F02003 		orr	r3, r3, #32
 1274 02c0 A363     		str	r3, [r4, #56]
 566:Drivers/STM32F1xx_HAL_Driver/Src/stm32f1xx_hal_dma.c **** 
 1275              		.loc 1 566 0
 1276 02c2 0120     		movs	r0, #1
 1277 02c4 84F82100 		strb	r0, [r4, #33]
 569:Drivers/STM32F1xx_HAL_Driver/Src/stm32f1xx_hal_dma.c **** 
 1278              		.loc 1 569 0
 1279 02c8 0023     		movs	r3, #0
 1280 02ca 84F82030 		strb	r3, [r4, #32]
 571:Drivers/STM32F1xx_HAL_Driver/Src/stm32f1xx_hal_dma.c ****       }
 1281              		.loc 1 571 0
 1282 02ce BDE8F081 		pop	{r4, r5, r6, r7, r8, pc}
 1283              	.LVL63:
 1284              	.L89:
 537:Drivers/STM32F1xx_HAL_Driver/Src/stm32f1xx_hal_dma.c ****   {
 1285              		.loc 1 537 0 discriminator 2
 1286 02d2 064A     		ldr	r2, .L201+12
 1287 02d4 1268     		ldr	r2, [r2]
 1288 02d6 1642     		tst	r6, r2
 1289 02d8 0CBF     		ite	eq
 1290 02da 0120     		moveq	r0, #1
 1291 02dc 0020     		movne	r0, #0
 1292 02de 4CE7     		b	.L90
 1293              	.L202:
 1294              		.align	2
 1295              	.L201:
 1296 02e0 08000240 		.word	1073872904
 1297 02e4 80000240 		.word	1073873024
 1298 02e8 00040240 		.word	1073873920
 1299 02ec 00000240 		.word	1073872896
 1300              	.L194:
 576:Drivers/STM32F1xx_HAL_Driver/Src/stm32f1xx_hal_dma.c ****   {
 1301              		.loc 1 576 0
ARM GAS  /tmp/ccFYW4Uk.s 			page 43


 1302 02f0 002F     		cmp	r7, #0
 1303 02f2 40F08C80 		bne	.L92
 579:Drivers/STM32F1xx_HAL_Driver/Src/stm32f1xx_hal_dma.c **** 
 1304              		.loc 1 579 0
 1305 02f6 884A     		ldr	r2, .L203
 1306 02f8 9342     		cmp	r3, r2
 1307 02fa 44D9     		bls	.L93
 579:Drivers/STM32F1xx_HAL_Driver/Src/stm32f1xx_hal_dma.c **** 
 1308              		.loc 1 579 0 is_stmt 0 discriminator 1
 1309 02fc 783A     		subs	r2, r2, #120
 1310 02fe 9342     		cmp	r3, r2
 1311 0300 21D0     		beq	.L144
 579:Drivers/STM32F1xx_HAL_Driver/Src/stm32f1xx_hal_dma.c **** 
 1312              		.loc 1 579 0 discriminator 3
 1313 0302 1432     		adds	r2, r2, #20
 1314 0304 9342     		cmp	r3, r2
 1315 0306 29D0     		beq	.L145
 579:Drivers/STM32F1xx_HAL_Driver/Src/stm32f1xx_hal_dma.c **** 
 1316              		.loc 1 579 0 discriminator 5
 1317 0308 1432     		adds	r2, r2, #20
 1318 030a 9342     		cmp	r3, r2
 1319 030c 28D0     		beq	.L146
 579:Drivers/STM32F1xx_HAL_Driver/Src/stm32f1xx_hal_dma.c **** 
 1320              		.loc 1 579 0 discriminator 7
 1321 030e 1432     		adds	r2, r2, #20
 1322 0310 9342     		cmp	r3, r2
 1323 0312 28D0     		beq	.L147
 579:Drivers/STM32F1xx_HAL_Driver/Src/stm32f1xx_hal_dma.c **** 
 1324              		.loc 1 579 0 discriminator 9
 1325 0314 1432     		adds	r2, r2, #20
 1326 0316 9342     		cmp	r3, r2
 1327 0318 28D0     		beq	.L148
 579:Drivers/STM32F1xx_HAL_Driver/Src/stm32f1xx_hal_dma.c **** 
 1328              		.loc 1 579 0 discriminator 11
 1329 031a 1432     		adds	r2, r2, #20
 1330 031c 9342     		cmp	r3, r2
 1331 031e 28D0     		beq	.L149
 579:Drivers/STM32F1xx_HAL_Driver/Src/stm32f1xx_hal_dma.c **** 
 1332              		.loc 1 579 0 discriminator 15
 1333 0320 02F56772 		add	r2, r2, #924
 1334 0324 9342     		cmp	r3, r2
 1335 0326 27D0     		beq	.L150
 579:Drivers/STM32F1xx_HAL_Driver/Src/stm32f1xx_hal_dma.c **** 
 1336              		.loc 1 579 0 discriminator 17
 1337 0328 1432     		adds	r2, r2, #20
 1338 032a 9342     		cmp	r3, r2
 1339 032c 26D0     		beq	.L151
 579:Drivers/STM32F1xx_HAL_Driver/Src/stm32f1xx_hal_dma.c **** 
 1340              		.loc 1 579 0 discriminator 19
 1341 032e 1432     		adds	r2, r2, #20
 1342 0330 9342     		cmp	r3, r2
 1343 0332 25D0     		beq	.L152
 579:Drivers/STM32F1xx_HAL_Driver/Src/stm32f1xx_hal_dma.c **** 
 1344              		.loc 1 579 0 discriminator 21
 1345 0334 1432     		adds	r2, r2, #20
 1346 0336 9342     		cmp	r3, r2
 1347 0338 02D0     		beq	.L197
ARM GAS  /tmp/ccFYW4Uk.s 			page 44


 579:Drivers/STM32F1xx_HAL_Driver/Src/stm32f1xx_hal_dma.c **** 
 1348              		.loc 1 579 0
 1349 033a 4FF40033 		mov	r3, #131072
 1350 033e 03E0     		b	.L94
 1351              	.L197:
 1352 0340 4FF40053 		mov	r3, #8192
 1353 0344 00E0     		b	.L94
 1354              	.L144:
 1355 0346 0223     		movs	r3, #2
 1356              	.L94:
 579:Drivers/STM32F1xx_HAL_Driver/Src/stm32f1xx_hal_dma.c **** 
 1357              		.loc 1 579 0 discriminator 46
 1358 0348 744A     		ldr	r2, .L203+4
 1359 034a 5360     		str	r3, [r2, #4]
 1360              	.L95:
 583:Drivers/STM32F1xx_HAL_Driver/Src/stm32f1xx_hal_dma.c ****   }
 1361              		.loc 1 583 0 is_stmt 1
 1362 034c 0123     		movs	r3, #1
 1363 034e 84F82130 		strb	r3, [r4, #33]
 1364              	.L97:
 592:Drivers/STM32F1xx_HAL_Driver/Src/stm32f1xx_hal_dma.c **** 
 1365              		.loc 1 592 0
 1366 0352 0020     		movs	r0, #0
 1367 0354 84F82000 		strb	r0, [r4, #32]
 595:Drivers/STM32F1xx_HAL_Driver/Src/stm32f1xx_hal_dma.c **** 
 1368              		.loc 1 595 0
 1369 0358 BDE8F081 		pop	{r4, r5, r6, r7, r8, pc}
 1370              	.LVL64:
 1371              	.L145:
 579:Drivers/STM32F1xx_HAL_Driver/Src/stm32f1xx_hal_dma.c **** 
 1372              		.loc 1 579 0
 1373 035c 2023     		movs	r3, #32
 1374 035e F3E7     		b	.L94
 1375              	.L146:
 1376 0360 4FF40073 		mov	r3, #512
 1377 0364 F0E7     		b	.L94
 1378              	.L147:
 1379 0366 4FF40053 		mov	r3, #8192
 1380 036a EDE7     		b	.L94
 1381              	.L148:
 1382 036c 4FF40033 		mov	r3, #131072
 1383 0370 EAE7     		b	.L94
 1384              	.L149:
 1385 0372 4FF40013 		mov	r3, #2097152
 1386 0376 E7E7     		b	.L94
 1387              	.L150:
 1388 0378 0223     		movs	r3, #2
 1389 037a E5E7     		b	.L94
 1390              	.L151:
 1391 037c 2023     		movs	r3, #32
 1392 037e E3E7     		b	.L94
 1393              	.L152:
 1394 0380 4FF40073 		mov	r3, #512
 1395 0384 E0E7     		b	.L94
 1396              	.L93:
 579:Drivers/STM32F1xx_HAL_Driver/Src/stm32f1xx_hal_dma.c **** 
 1397              		.loc 1 579 0 is_stmt 0 discriminator 2
ARM GAS  /tmp/ccFYW4Uk.s 			page 45


 1398 0386 664A     		ldr	r2, .L203+8
 1399 0388 9342     		cmp	r3, r2
 1400 038a 24D0     		beq	.L154
 579:Drivers/STM32F1xx_HAL_Driver/Src/stm32f1xx_hal_dma.c **** 
 1401              		.loc 1 579 0 discriminator 47
 1402 038c 1432     		adds	r2, r2, #20
 1403 038e 9342     		cmp	r3, r2
 1404 0390 25D0     		beq	.L155
 579:Drivers/STM32F1xx_HAL_Driver/Src/stm32f1xx_hal_dma.c **** 
 1405              		.loc 1 579 0 discriminator 49
 1406 0392 1432     		adds	r2, r2, #20
 1407 0394 9342     		cmp	r3, r2
 1408 0396 24D0     		beq	.L156
 579:Drivers/STM32F1xx_HAL_Driver/Src/stm32f1xx_hal_dma.c **** 
 1409              		.loc 1 579 0 discriminator 51
 1410 0398 1432     		adds	r2, r2, #20
 1411 039a 9342     		cmp	r3, r2
 1412 039c 24D0     		beq	.L157
 579:Drivers/STM32F1xx_HAL_Driver/Src/stm32f1xx_hal_dma.c **** 
 1413              		.loc 1 579 0 discriminator 53
 1414 039e 1432     		adds	r2, r2, #20
 1415 03a0 9342     		cmp	r3, r2
 1416 03a2 24D0     		beq	.L158
 579:Drivers/STM32F1xx_HAL_Driver/Src/stm32f1xx_hal_dma.c **** 
 1417              		.loc 1 579 0 discriminator 55
 1418 03a4 1432     		adds	r2, r2, #20
 1419 03a6 9342     		cmp	r3, r2
 1420 03a8 24D0     		beq	.L159
 579:Drivers/STM32F1xx_HAL_Driver/Src/stm32f1xx_hal_dma.c **** 
 1421              		.loc 1 579 0 discriminator 57
 1422 03aa 1432     		adds	r2, r2, #20
 1423 03ac 9342     		cmp	r3, r2
 1424 03ae 24D0     		beq	.L160
 579:Drivers/STM32F1xx_HAL_Driver/Src/stm32f1xx_hal_dma.c **** 
 1425              		.loc 1 579 0 discriminator 59
 1426 03b0 02F56272 		add	r2, r2, #904
 1427 03b4 9342     		cmp	r3, r2
 1428 03b6 23D0     		beq	.L161
 579:Drivers/STM32F1xx_HAL_Driver/Src/stm32f1xx_hal_dma.c **** 
 1429              		.loc 1 579 0 discriminator 61
 1430 03b8 1432     		adds	r2, r2, #20
 1431 03ba 9342     		cmp	r3, r2
 1432 03bc 22D0     		beq	.L162
 579:Drivers/STM32F1xx_HAL_Driver/Src/stm32f1xx_hal_dma.c **** 
 1433              		.loc 1 579 0 discriminator 63
 1434 03be 1432     		adds	r2, r2, #20
 1435 03c0 9342     		cmp	r3, r2
 1436 03c2 21D0     		beq	.L163
 579:Drivers/STM32F1xx_HAL_Driver/Src/stm32f1xx_hal_dma.c **** 
 1437              		.loc 1 579 0 discriminator 65
 1438 03c4 1432     		adds	r2, r2, #20
 1439 03c6 9342     		cmp	r3, r2
 1440 03c8 02D0     		beq	.L198
 579:Drivers/STM32F1xx_HAL_Driver/Src/stm32f1xx_hal_dma.c **** 
 1441              		.loc 1 579 0
 1442 03ca 4FF40033 		mov	r3, #131072
 1443 03ce 03E0     		b	.L96
ARM GAS  /tmp/ccFYW4Uk.s 			page 46


 1444              	.L198:
 1445 03d0 4FF40053 		mov	r3, #8192
 1446 03d4 00E0     		b	.L96
 1447              	.L154:
 1448 03d6 0223     		movs	r3, #2
 1449              	.L96:
 579:Drivers/STM32F1xx_HAL_Driver/Src/stm32f1xx_hal_dma.c **** 
 1450              		.loc 1 579 0 discriminator 90
 1451 03d8 524A     		ldr	r2, .L203+12
 1452 03da 5360     		str	r3, [r2, #4]
 1453 03dc B6E7     		b	.L95
 1454              	.L155:
 579:Drivers/STM32F1xx_HAL_Driver/Src/stm32f1xx_hal_dma.c **** 
 1455              		.loc 1 579 0
 1456 03de 2023     		movs	r3, #32
 1457 03e0 FAE7     		b	.L96
 1458              	.L156:
 1459 03e2 4FF40073 		mov	r3, #512
 1460 03e6 F7E7     		b	.L96
 1461              	.L157:
 1462 03e8 4FF40053 		mov	r3, #8192
 1463 03ec F4E7     		b	.L96
 1464              	.L158:
 1465 03ee 4FF40033 		mov	r3, #131072
 1466 03f2 F1E7     		b	.L96
 1467              	.L159:
 1468 03f4 4FF40013 		mov	r3, #2097152
 1469 03f8 EEE7     		b	.L96
 1470              	.L160:
 1471 03fa 4FF00073 		mov	r3, #33554432
 1472 03fe EBE7     		b	.L96
 1473              	.L161:
 1474 0400 0223     		movs	r3, #2
 1475 0402 E9E7     		b	.L96
 1476              	.L162:
 1477 0404 2023     		movs	r3, #32
 1478 0406 E7E7     		b	.L96
 1479              	.L163:
 1480 0408 4FF40073 		mov	r3, #512
 1481 040c E4E7     		b	.L96
 1482              	.L92:
 588:Drivers/STM32F1xx_HAL_Driver/Src/stm32f1xx_hal_dma.c ****   }
 1483              		.loc 1 588 0 is_stmt 1
 1484 040e 424A     		ldr	r2, .L203
 1485 0410 9342     		cmp	r3, r2
 1486 0412 3DD9     		bls	.L98
 588:Drivers/STM32F1xx_HAL_Driver/Src/stm32f1xx_hal_dma.c ****   }
 1487              		.loc 1 588 0 is_stmt 0 discriminator 1
 1488 0414 783A     		subs	r2, r2, #120
 1489 0416 9342     		cmp	r3, r2
 1490 0418 21D0     		beq	.L165
 588:Drivers/STM32F1xx_HAL_Driver/Src/stm32f1xx_hal_dma.c ****   }
 1491              		.loc 1 588 0 discriminator 3
 1492 041a 1432     		adds	r2, r2, #20
 1493 041c 9342     		cmp	r3, r2
 1494 041e 22D0     		beq	.L166
 588:Drivers/STM32F1xx_HAL_Driver/Src/stm32f1xx_hal_dma.c ****   }
ARM GAS  /tmp/ccFYW4Uk.s 			page 47


 1495              		.loc 1 588 0 discriminator 5
 1496 0420 1432     		adds	r2, r2, #20
 1497 0422 9342     		cmp	r3, r2
 1498 0424 21D0     		beq	.L167
 588:Drivers/STM32F1xx_HAL_Driver/Src/stm32f1xx_hal_dma.c ****   }
 1499              		.loc 1 588 0 discriminator 7
 1500 0426 1432     		adds	r2, r2, #20
 1501 0428 9342     		cmp	r3, r2
 1502 042a 21D0     		beq	.L168
 588:Drivers/STM32F1xx_HAL_Driver/Src/stm32f1xx_hal_dma.c ****   }
 1503              		.loc 1 588 0 discriminator 9
 1504 042c 1432     		adds	r2, r2, #20
 1505 042e 9342     		cmp	r3, r2
 1506 0430 21D0     		beq	.L169
 588:Drivers/STM32F1xx_HAL_Driver/Src/stm32f1xx_hal_dma.c ****   }
 1507              		.loc 1 588 0 discriminator 11
 1508 0432 1432     		adds	r2, r2, #20
 1509 0434 9342     		cmp	r3, r2
 1510 0436 21D0     		beq	.L170
 588:Drivers/STM32F1xx_HAL_Driver/Src/stm32f1xx_hal_dma.c ****   }
 1511              		.loc 1 588 0 discriminator 15
 1512 0438 02F56772 		add	r2, r2, #924
 1513 043c 9342     		cmp	r3, r2
 1514 043e 20D0     		beq	.L171
 588:Drivers/STM32F1xx_HAL_Driver/Src/stm32f1xx_hal_dma.c ****   }
 1515              		.loc 1 588 0 discriminator 17
 1516 0440 1432     		adds	r2, r2, #20
 1517 0442 9342     		cmp	r3, r2
 1518 0444 1FD0     		beq	.L172
 588:Drivers/STM32F1xx_HAL_Driver/Src/stm32f1xx_hal_dma.c ****   }
 1519              		.loc 1 588 0 discriminator 19
 1520 0446 1432     		adds	r2, r2, #20
 1521 0448 9342     		cmp	r3, r2
 1522 044a 1ED0     		beq	.L173
 588:Drivers/STM32F1xx_HAL_Driver/Src/stm32f1xx_hal_dma.c ****   }
 1523              		.loc 1 588 0 discriminator 21
 1524 044c 1432     		adds	r2, r2, #20
 1525 044e 9342     		cmp	r3, r2
 1526 0450 02D0     		beq	.L199
 588:Drivers/STM32F1xx_HAL_Driver/Src/stm32f1xx_hal_dma.c ****   }
 1527              		.loc 1 588 0
 1528 0452 4FF48023 		mov	r3, #262144
 1529 0456 03E0     		b	.L99
 1530              	.L199:
 1531 0458 4FF48043 		mov	r3, #16384
 1532 045c 00E0     		b	.L99
 1533              	.L165:
 1534 045e 0423     		movs	r3, #4
 1535              	.L99:
 588:Drivers/STM32F1xx_HAL_Driver/Src/stm32f1xx_hal_dma.c ****   }
 1536              		.loc 1 588 0 discriminator 46
 1537 0460 2E4A     		ldr	r2, .L203+4
 1538 0462 5360     		str	r3, [r2, #4]
 1539 0464 75E7     		b	.L97
 1540              	.L166:
 588:Drivers/STM32F1xx_HAL_Driver/Src/stm32f1xx_hal_dma.c ****   }
 1541              		.loc 1 588 0
ARM GAS  /tmp/ccFYW4Uk.s 			page 48


 1542 0466 4023     		movs	r3, #64
 1543 0468 FAE7     		b	.L99
 1544              	.L167:
 1545 046a 4FF48063 		mov	r3, #1024
 1546 046e F7E7     		b	.L99
 1547              	.L168:
 1548 0470 4FF48043 		mov	r3, #16384
 1549 0474 F4E7     		b	.L99
 1550              	.L169:
 1551 0476 4FF48023 		mov	r3, #262144
 1552 047a F1E7     		b	.L99
 1553              	.L170:
 1554 047c 4FF48003 		mov	r3, #4194304
 1555 0480 EEE7     		b	.L99
 1556              	.L171:
 1557 0482 0423     		movs	r3, #4
 1558 0484 ECE7     		b	.L99
 1559              	.L172:
 1560 0486 4023     		movs	r3, #64
 1561 0488 EAE7     		b	.L99
 1562              	.L173:
 1563 048a 4FF48063 		mov	r3, #1024
 1564 048e E7E7     		b	.L99
 1565              	.L98:
 588:Drivers/STM32F1xx_HAL_Driver/Src/stm32f1xx_hal_dma.c ****   }
 1566              		.loc 1 588 0 discriminator 2
 1567 0490 234A     		ldr	r2, .L203+8
 1568 0492 9342     		cmp	r3, r2
 1569 0494 24D0     		beq	.L175
 588:Drivers/STM32F1xx_HAL_Driver/Src/stm32f1xx_hal_dma.c ****   }
 1570              		.loc 1 588 0 discriminator 47
 1571 0496 1432     		adds	r2, r2, #20
 1572 0498 9342     		cmp	r3, r2
 1573 049a 25D0     		beq	.L176
 588:Drivers/STM32F1xx_HAL_Driver/Src/stm32f1xx_hal_dma.c ****   }
 1574              		.loc 1 588 0 discriminator 49
 1575 049c 1432     		adds	r2, r2, #20
 1576 049e 9342     		cmp	r3, r2
 1577 04a0 24D0     		beq	.L177
 588:Drivers/STM32F1xx_HAL_Driver/Src/stm32f1xx_hal_dma.c ****   }
 1578              		.loc 1 588 0 discriminator 51
 1579 04a2 1432     		adds	r2, r2, #20
 1580 04a4 9342     		cmp	r3, r2
 1581 04a6 24D0     		beq	.L178
 588:Drivers/STM32F1xx_HAL_Driver/Src/stm32f1xx_hal_dma.c ****   }
 1582              		.loc 1 588 0 discriminator 53
 1583 04a8 1432     		adds	r2, r2, #20
 1584 04aa 9342     		cmp	r3, r2
 1585 04ac 24D0     		beq	.L179
 588:Drivers/STM32F1xx_HAL_Driver/Src/stm32f1xx_hal_dma.c ****   }
 1586              		.loc 1 588 0 discriminator 55
 1587 04ae 1432     		adds	r2, r2, #20
 1588 04b0 9342     		cmp	r3, r2
 1589 04b2 24D0     		beq	.L180
 588:Drivers/STM32F1xx_HAL_Driver/Src/stm32f1xx_hal_dma.c ****   }
 1590              		.loc 1 588 0 discriminator 57
 1591 04b4 1432     		adds	r2, r2, #20
ARM GAS  /tmp/ccFYW4Uk.s 			page 49


 1592 04b6 9342     		cmp	r3, r2
 1593 04b8 24D0     		beq	.L181
 588:Drivers/STM32F1xx_HAL_Driver/Src/stm32f1xx_hal_dma.c ****   }
 1594              		.loc 1 588 0 discriminator 59
 1595 04ba 02F56272 		add	r2, r2, #904
 1596 04be 9342     		cmp	r3, r2
 1597 04c0 23D0     		beq	.L182
 588:Drivers/STM32F1xx_HAL_Driver/Src/stm32f1xx_hal_dma.c ****   }
 1598              		.loc 1 588 0 discriminator 61
 1599 04c2 1432     		adds	r2, r2, #20
 1600 04c4 9342     		cmp	r3, r2
 1601 04c6 22D0     		beq	.L183
 588:Drivers/STM32F1xx_HAL_Driver/Src/stm32f1xx_hal_dma.c ****   }
 1602              		.loc 1 588 0 discriminator 63
 1603 04c8 1432     		adds	r2, r2, #20
 1604 04ca 9342     		cmp	r3, r2
 1605 04cc 21D0     		beq	.L184
 588:Drivers/STM32F1xx_HAL_Driver/Src/stm32f1xx_hal_dma.c ****   }
 1606              		.loc 1 588 0 discriminator 65
 1607 04ce 1432     		adds	r2, r2, #20
 1608 04d0 9342     		cmp	r3, r2
 1609 04d2 02D0     		beq	.L200
 588:Drivers/STM32F1xx_HAL_Driver/Src/stm32f1xx_hal_dma.c ****   }
 1610              		.loc 1 588 0
 1611 04d4 4FF48023 		mov	r3, #262144
 1612 04d8 03E0     		b	.L100
 1613              	.L200:
 1614 04da 4FF48043 		mov	r3, #16384
 1615 04de 00E0     		b	.L100
 1616              	.L175:
 1617 04e0 0423     		movs	r3, #4
 1618              	.L100:
 588:Drivers/STM32F1xx_HAL_Driver/Src/stm32f1xx_hal_dma.c ****   }
 1619              		.loc 1 588 0 discriminator 90
 1620 04e2 104A     		ldr	r2, .L203+12
 1621 04e4 5360     		str	r3, [r2, #4]
 1622 04e6 34E7     		b	.L97
 1623              	.L176:
 588:Drivers/STM32F1xx_HAL_Driver/Src/stm32f1xx_hal_dma.c ****   }
 1624              		.loc 1 588 0
 1625 04e8 4023     		movs	r3, #64
 1626 04ea FAE7     		b	.L100
 1627              	.L177:
 1628 04ec 4FF48063 		mov	r3, #1024
 1629 04f0 F7E7     		b	.L100
 1630              	.L178:
 1631 04f2 4FF48043 		mov	r3, #16384
 1632 04f6 F4E7     		b	.L100
 1633              	.L179:
 1634 04f8 4FF48023 		mov	r3, #262144
 1635 04fc F1E7     		b	.L100
 1636              	.L180:
 1637 04fe 4FF48003 		mov	r3, #4194304
 1638 0502 EEE7     		b	.L100
 1639              	.L181:
 1640 0504 4FF08063 		mov	r3, #67108864
 1641 0508 EBE7     		b	.L100
ARM GAS  /tmp/ccFYW4Uk.s 			page 50


 1642              	.L182:
 1643 050a 0423     		movs	r3, #4
 1644 050c E9E7     		b	.L100
 1645              	.L183:
 1646 050e 4023     		movs	r3, #64
 1647 0510 E7E7     		b	.L100
 1648              	.L184:
 1649 0512 4FF48063 		mov	r3, #1024
 1650 0516 E4E7     		b	.L100
 1651              	.L204:
 1652              		.align	2
 1653              	.L203:
 1654 0518 80000240 		.word	1073873024
 1655 051c 00040240 		.word	1073873920
 1656 0520 08000240 		.word	1073872904
 1657 0524 00000240 		.word	1073872896
 1658              		.cfi_endproc
 1659              	.LFE71:
 1661              		.section	.text.HAL_DMA_IRQHandler,"ax",%progbits
 1662              		.align	1
 1663              		.global	HAL_DMA_IRQHandler
 1664              		.syntax unified
 1665              		.thumb
 1666              		.thumb_func
 1667              		.fpu softvfp
 1669              	HAL_DMA_IRQHandler:
 1670              	.LFB72:
 604:Drivers/STM32F1xx_HAL_Driver/Src/stm32f1xx_hal_dma.c ****   uint32_t flag_it = hdma->DmaBaseAddress->ISR;
 1671              		.loc 1 604 0 is_stmt 1
 1672              		.cfi_startproc
 1673              		@ args = 0, pretend = 0, frame = 0
 1674              		@ frame_needed = 0, uses_anonymous_args = 0
 1675              	.LVL65:
 1676 0000 38B5     		push	{r3, r4, r5, lr}
 1677              		.cfi_def_cfa_offset 16
 1678              		.cfi_offset 3, -16
 1679              		.cfi_offset 4, -12
 1680              		.cfi_offset 5, -8
 1681              		.cfi_offset 14, -4
 605:Drivers/STM32F1xx_HAL_Driver/Src/stm32f1xx_hal_dma.c ****   uint32_t source_it = hdma->Instance->CCR;
 1682              		.loc 1 605 0
 1683 0002 C36B     		ldr	r3, [r0, #60]
 1684 0004 1A68     		ldr	r2, [r3]
 1685              	.LVL66:
 606:Drivers/STM32F1xx_HAL_Driver/Src/stm32f1xx_hal_dma.c ****   
 1686              		.loc 1 606 0
 1687 0006 0468     		ldr	r4, [r0]
 1688 0008 2568     		ldr	r5, [r4]
 1689              	.LVL67:
 609:Drivers/STM32F1xx_HAL_Driver/Src/stm32f1xx_hal_dma.c ****   {
 1690              		.loc 1 609 0
 1691 000a 016C     		ldr	r1, [r0, #64]
 1692 000c 0423     		movs	r3, #4
 1693 000e 8B40     		lsls	r3, r3, r1
 1694 0010 1A42     		tst	r2, r3
 1695 0012 00F09780 		beq	.L206
 609:Drivers/STM32F1xx_HAL_Driver/Src/stm32f1xx_hal_dma.c ****   {
ARM GAS  /tmp/ccFYW4Uk.s 			page 51


 1696              		.loc 1 609 0 is_stmt 0 discriminator 1
 1697 0016 15F0040F 		tst	r5, #4
 1698 001a 00F09380 		beq	.L206
 612:Drivers/STM32F1xx_HAL_Driver/Src/stm32f1xx_hal_dma.c ****     {
 1699              		.loc 1 612 0 is_stmt 1
 1700 001e 2368     		ldr	r3, [r4]
 1701 0020 13F0200F 		tst	r3, #32
 1702 0024 03D1     		bne	.L207
 615:Drivers/STM32F1xx_HAL_Driver/Src/stm32f1xx_hal_dma.c ****     }
 1703              		.loc 1 615 0
 1704 0026 2368     		ldr	r3, [r4]
 1705 0028 23F00403 		bic	r3, r3, #4
 1706 002c 2360     		str	r3, [r4]
 1707              	.L207:
 618:Drivers/STM32F1xx_HAL_Driver/Src/stm32f1xx_hal_dma.c **** 
 1708              		.loc 1 618 0
 1709 002e 0368     		ldr	r3, [r0]
 1710 0030 A34A     		ldr	r2, .L266
 1711              	.LVL68:
 1712 0032 9342     		cmp	r3, r2
 1713 0034 42D9     		bls	.L208
 618:Drivers/STM32F1xx_HAL_Driver/Src/stm32f1xx_hal_dma.c **** 
 1714              		.loc 1 618 0 is_stmt 0 discriminator 1
 1715 0036 783A     		subs	r2, r2, #120
 1716 0038 9342     		cmp	r3, r2
 1717 003a 21D0     		beq	.L219
 618:Drivers/STM32F1xx_HAL_Driver/Src/stm32f1xx_hal_dma.c **** 
 1718              		.loc 1 618 0 discriminator 3
 1719 003c 1432     		adds	r2, r2, #20
 1720 003e 9342     		cmp	r3, r2
 1721 0040 27D0     		beq	.L220
 618:Drivers/STM32F1xx_HAL_Driver/Src/stm32f1xx_hal_dma.c **** 
 1722              		.loc 1 618 0 discriminator 5
 1723 0042 1432     		adds	r2, r2, #20
 1724 0044 9342     		cmp	r3, r2
 1725 0046 26D0     		beq	.L221
 618:Drivers/STM32F1xx_HAL_Driver/Src/stm32f1xx_hal_dma.c **** 
 1726              		.loc 1 618 0 discriminator 7
 1727 0048 1432     		adds	r2, r2, #20
 1728 004a 9342     		cmp	r3, r2
 1729 004c 26D0     		beq	.L222
 618:Drivers/STM32F1xx_HAL_Driver/Src/stm32f1xx_hal_dma.c **** 
 1730              		.loc 1 618 0 discriminator 9
 1731 004e 1432     		adds	r2, r2, #20
 1732 0050 9342     		cmp	r3, r2
 1733 0052 26D0     		beq	.L223
 618:Drivers/STM32F1xx_HAL_Driver/Src/stm32f1xx_hal_dma.c **** 
 1734              		.loc 1 618 0 discriminator 11
 1735 0054 1432     		adds	r2, r2, #20
 1736 0056 9342     		cmp	r3, r2
 1737 0058 26D0     		beq	.L224
 618:Drivers/STM32F1xx_HAL_Driver/Src/stm32f1xx_hal_dma.c **** 
 1738              		.loc 1 618 0 discriminator 15
 1739 005a 02F56772 		add	r2, r2, #924
 1740 005e 9342     		cmp	r3, r2
 1741 0060 25D0     		beq	.L225
 618:Drivers/STM32F1xx_HAL_Driver/Src/stm32f1xx_hal_dma.c **** 
ARM GAS  /tmp/ccFYW4Uk.s 			page 52


 1742              		.loc 1 618 0 discriminator 17
 1743 0062 1432     		adds	r2, r2, #20
 1744 0064 9342     		cmp	r3, r2
 1745 0066 24D0     		beq	.L226
 618:Drivers/STM32F1xx_HAL_Driver/Src/stm32f1xx_hal_dma.c **** 
 1746              		.loc 1 618 0 discriminator 19
 1747 0068 1432     		adds	r2, r2, #20
 1748 006a 9342     		cmp	r3, r2
 1749 006c 23D0     		beq	.L227
 618:Drivers/STM32F1xx_HAL_Driver/Src/stm32f1xx_hal_dma.c **** 
 1750              		.loc 1 618 0 discriminator 21
 1751 006e 1432     		adds	r2, r2, #20
 1752 0070 9342     		cmp	r3, r2
 1753 0072 02D0     		beq	.L262
 618:Drivers/STM32F1xx_HAL_Driver/Src/stm32f1xx_hal_dma.c **** 
 1754              		.loc 1 618 0
 1755 0074 4FF48022 		mov	r2, #262144
 1756 0078 03E0     		b	.L209
 1757              	.L262:
 1758 007a 4FF48042 		mov	r2, #16384
 1759 007e 00E0     		b	.L209
 1760              	.L219:
 1761 0080 0422     		movs	r2, #4
 1762              	.L209:
 618:Drivers/STM32F1xx_HAL_Driver/Src/stm32f1xx_hal_dma.c **** 
 1763              		.loc 1 618 0 discriminator 46
 1764 0082 904B     		ldr	r3, .L266+4
 1765 0084 5A60     		str	r2, [r3, #4]
 1766              	.L210:
 623:Drivers/STM32F1xx_HAL_Driver/Src/stm32f1xx_hal_dma.c ****     {
 1767              		.loc 1 623 0 is_stmt 1
 1768 0086 C36A     		ldr	r3, [r0, #44]
 1769 0088 002B     		cmp	r3, #0
 1770 008a 00F01781 		beq	.L205
 626:Drivers/STM32F1xx_HAL_Driver/Src/stm32f1xx_hal_dma.c ****     }
 1771              		.loc 1 626 0
 1772 008e 9847     		blx	r3
 1773              	.LVL69:
 1774 0090 38BD     		pop	{r3, r4, r5, pc}
 1775              	.LVL70:
 1776              	.L220:
 618:Drivers/STM32F1xx_HAL_Driver/Src/stm32f1xx_hal_dma.c **** 
 1777              		.loc 1 618 0
 1778 0092 4022     		movs	r2, #64
 1779 0094 F5E7     		b	.L209
 1780              	.L221:
 1781 0096 4FF48062 		mov	r2, #1024
 1782 009a F2E7     		b	.L209
 1783              	.L222:
 1784 009c 4FF48042 		mov	r2, #16384
 1785 00a0 EFE7     		b	.L209
 1786              	.L223:
 1787 00a2 4FF48022 		mov	r2, #262144
 1788 00a6 ECE7     		b	.L209
 1789              	.L224:
 1790 00a8 4FF48002 		mov	r2, #4194304
 1791 00ac E9E7     		b	.L209
ARM GAS  /tmp/ccFYW4Uk.s 			page 53


 1792              	.L225:
 1793 00ae 0422     		movs	r2, #4
 1794 00b0 E7E7     		b	.L209
 1795              	.L226:
 1796 00b2 4022     		movs	r2, #64
 1797 00b4 E5E7     		b	.L209
 1798              	.L227:
 1799 00b6 4FF48062 		mov	r2, #1024
 1800 00ba E2E7     		b	.L209
 1801              	.L208:
 618:Drivers/STM32F1xx_HAL_Driver/Src/stm32f1xx_hal_dma.c **** 
 1802              		.loc 1 618 0 is_stmt 0 discriminator 2
 1803 00bc 824A     		ldr	r2, .L266+8
 1804 00be 9342     		cmp	r3, r2
 1805 00c0 24D0     		beq	.L229
 618:Drivers/STM32F1xx_HAL_Driver/Src/stm32f1xx_hal_dma.c **** 
 1806              		.loc 1 618 0 discriminator 47
 1807 00c2 1432     		adds	r2, r2, #20
 1808 00c4 9342     		cmp	r3, r2
 1809 00c6 25D0     		beq	.L230
 618:Drivers/STM32F1xx_HAL_Driver/Src/stm32f1xx_hal_dma.c **** 
 1810              		.loc 1 618 0 discriminator 49
 1811 00c8 1432     		adds	r2, r2, #20
 1812 00ca 9342     		cmp	r3, r2
 1813 00cc 24D0     		beq	.L231
 618:Drivers/STM32F1xx_HAL_Driver/Src/stm32f1xx_hal_dma.c **** 
 1814              		.loc 1 618 0 discriminator 51
 1815 00ce 1432     		adds	r2, r2, #20
 1816 00d0 9342     		cmp	r3, r2
 1817 00d2 24D0     		beq	.L232
 618:Drivers/STM32F1xx_HAL_Driver/Src/stm32f1xx_hal_dma.c **** 
 1818              		.loc 1 618 0 discriminator 53
 1819 00d4 1432     		adds	r2, r2, #20
 1820 00d6 9342     		cmp	r3, r2
 1821 00d8 24D0     		beq	.L233
 618:Drivers/STM32F1xx_HAL_Driver/Src/stm32f1xx_hal_dma.c **** 
 1822              		.loc 1 618 0 discriminator 55
 1823 00da 1432     		adds	r2, r2, #20
 1824 00dc 9342     		cmp	r3, r2
 1825 00de 24D0     		beq	.L234
 618:Drivers/STM32F1xx_HAL_Driver/Src/stm32f1xx_hal_dma.c **** 
 1826              		.loc 1 618 0 discriminator 57
 1827 00e0 1432     		adds	r2, r2, #20
 1828 00e2 9342     		cmp	r3, r2
 1829 00e4 24D0     		beq	.L235
 618:Drivers/STM32F1xx_HAL_Driver/Src/stm32f1xx_hal_dma.c **** 
 1830              		.loc 1 618 0 discriminator 59
 1831 00e6 02F56272 		add	r2, r2, #904
 1832 00ea 9342     		cmp	r3, r2
 1833 00ec 23D0     		beq	.L236
 618:Drivers/STM32F1xx_HAL_Driver/Src/stm32f1xx_hal_dma.c **** 
 1834              		.loc 1 618 0 discriminator 61
 1835 00ee 1432     		adds	r2, r2, #20
 1836 00f0 9342     		cmp	r3, r2
 1837 00f2 22D0     		beq	.L237
 618:Drivers/STM32F1xx_HAL_Driver/Src/stm32f1xx_hal_dma.c **** 
 1838              		.loc 1 618 0 discriminator 63
ARM GAS  /tmp/ccFYW4Uk.s 			page 54


 1839 00f4 1432     		adds	r2, r2, #20
 1840 00f6 9342     		cmp	r3, r2
 1841 00f8 21D0     		beq	.L238
 618:Drivers/STM32F1xx_HAL_Driver/Src/stm32f1xx_hal_dma.c **** 
 1842              		.loc 1 618 0 discriminator 65
 1843 00fa 1432     		adds	r2, r2, #20
 1844 00fc 9342     		cmp	r3, r2
 1845 00fe 02D0     		beq	.L263
 618:Drivers/STM32F1xx_HAL_Driver/Src/stm32f1xx_hal_dma.c **** 
 1846              		.loc 1 618 0
 1847 0100 4FF48022 		mov	r2, #262144
 1848 0104 03E0     		b	.L211
 1849              	.L263:
 1850 0106 4FF48042 		mov	r2, #16384
 1851 010a 00E0     		b	.L211
 1852              	.L229:
 1853 010c 0422     		movs	r2, #4
 1854              	.L211:
 618:Drivers/STM32F1xx_HAL_Driver/Src/stm32f1xx_hal_dma.c **** 
 1855              		.loc 1 618 0 discriminator 90
 1856 010e 6F4B     		ldr	r3, .L266+12
 1857 0110 5A60     		str	r2, [r3, #4]
 1858 0112 B8E7     		b	.L210
 1859              	.L230:
 618:Drivers/STM32F1xx_HAL_Driver/Src/stm32f1xx_hal_dma.c **** 
 1860              		.loc 1 618 0
 1861 0114 4022     		movs	r2, #64
 1862 0116 FAE7     		b	.L211
 1863              	.L231:
 1864 0118 4FF48062 		mov	r2, #1024
 1865 011c F7E7     		b	.L211
 1866              	.L232:
 1867 011e 4FF48042 		mov	r2, #16384
 1868 0122 F4E7     		b	.L211
 1869              	.L233:
 1870 0124 4FF48022 		mov	r2, #262144
 1871 0128 F1E7     		b	.L211
 1872              	.L234:
 1873 012a 4FF48002 		mov	r2, #4194304
 1874 012e EEE7     		b	.L211
 1875              	.L235:
 1876 0130 4FF08062 		mov	r2, #67108864
 1877 0134 EBE7     		b	.L211
 1878              	.L236:
 1879 0136 0422     		movs	r2, #4
 1880 0138 E9E7     		b	.L211
 1881              	.L237:
 1882 013a 4022     		movs	r2, #64
 1883 013c E7E7     		b	.L211
 1884              	.L238:
 1885 013e 4FF48062 		mov	r2, #1024
 1886 0142 E4E7     		b	.L211
 1887              	.LVL71:
 1888              	.L206:
 631:Drivers/STM32F1xx_HAL_Driver/Src/stm32f1xx_hal_dma.c ****   {
 1889              		.loc 1 631 0 is_stmt 1
 1890 0144 0223     		movs	r3, #2
ARM GAS  /tmp/ccFYW4Uk.s 			page 55


 1891 0146 8B40     		lsls	r3, r3, r1
 1892 0148 1A42     		tst	r2, r3
 1893 014a 00F09C80 		beq	.L213
 631:Drivers/STM32F1xx_HAL_Driver/Src/stm32f1xx_hal_dma.c ****   {
 1894              		.loc 1 631 0 is_stmt 0 discriminator 1
 1895 014e 15F0020F 		tst	r5, #2
 1896 0152 00F09880 		beq	.L213
 633:Drivers/STM32F1xx_HAL_Driver/Src/stm32f1xx_hal_dma.c ****     {
 1897              		.loc 1 633 0 is_stmt 1
 1898 0156 2368     		ldr	r3, [r4]
 1899 0158 13F0200F 		tst	r3, #32
 1900 015c 06D1     		bne	.L214
 636:Drivers/STM32F1xx_HAL_Driver/Src/stm32f1xx_hal_dma.c **** 
 1901              		.loc 1 636 0
 1902 015e 2368     		ldr	r3, [r4]
 1903 0160 23F00A03 		bic	r3, r3, #10
 1904 0164 2360     		str	r3, [r4]
 639:Drivers/STM32F1xx_HAL_Driver/Src/stm32f1xx_hal_dma.c ****     }
 1905              		.loc 1 639 0
 1906 0166 0123     		movs	r3, #1
 1907 0168 80F82130 		strb	r3, [r0, #33]
 1908              	.L214:
 642:Drivers/STM32F1xx_HAL_Driver/Src/stm32f1xx_hal_dma.c **** 
 1909              		.loc 1 642 0
 1910 016c 0368     		ldr	r3, [r0]
 1911 016e 544A     		ldr	r2, .L266
 1912              	.LVL72:
 1913 0170 9342     		cmp	r3, r2
 1914 0172 44D9     		bls	.L215
 642:Drivers/STM32F1xx_HAL_Driver/Src/stm32f1xx_hal_dma.c **** 
 1915              		.loc 1 642 0 is_stmt 0 discriminator 1
 1916 0174 783A     		subs	r2, r2, #120
 1917 0176 9342     		cmp	r3, r2
 1918 0178 21D0     		beq	.L240
 642:Drivers/STM32F1xx_HAL_Driver/Src/stm32f1xx_hal_dma.c **** 
 1919              		.loc 1 642 0 discriminator 3
 1920 017a 1432     		adds	r2, r2, #20
 1921 017c 9342     		cmp	r3, r2
 1922 017e 29D0     		beq	.L241
 642:Drivers/STM32F1xx_HAL_Driver/Src/stm32f1xx_hal_dma.c **** 
 1923              		.loc 1 642 0 discriminator 5
 1924 0180 1432     		adds	r2, r2, #20
 1925 0182 9342     		cmp	r3, r2
 1926 0184 28D0     		beq	.L242
 642:Drivers/STM32F1xx_HAL_Driver/Src/stm32f1xx_hal_dma.c **** 
 1927              		.loc 1 642 0 discriminator 7
 1928 0186 1432     		adds	r2, r2, #20
 1929 0188 9342     		cmp	r3, r2
 1930 018a 28D0     		beq	.L243
 642:Drivers/STM32F1xx_HAL_Driver/Src/stm32f1xx_hal_dma.c **** 
 1931              		.loc 1 642 0 discriminator 9
 1932 018c 1432     		adds	r2, r2, #20
 1933 018e 9342     		cmp	r3, r2
 1934 0190 28D0     		beq	.L244
 642:Drivers/STM32F1xx_HAL_Driver/Src/stm32f1xx_hal_dma.c **** 
 1935              		.loc 1 642 0 discriminator 11
 1936 0192 1432     		adds	r2, r2, #20
ARM GAS  /tmp/ccFYW4Uk.s 			page 56


 1937 0194 9342     		cmp	r3, r2
 1938 0196 28D0     		beq	.L245
 642:Drivers/STM32F1xx_HAL_Driver/Src/stm32f1xx_hal_dma.c **** 
 1939              		.loc 1 642 0 discriminator 15
 1940 0198 02F56772 		add	r2, r2, #924
 1941 019c 9342     		cmp	r3, r2
 1942 019e 27D0     		beq	.L246
 642:Drivers/STM32F1xx_HAL_Driver/Src/stm32f1xx_hal_dma.c **** 
 1943              		.loc 1 642 0 discriminator 17
 1944 01a0 1432     		adds	r2, r2, #20
 1945 01a2 9342     		cmp	r3, r2
 1946 01a4 26D0     		beq	.L247
 642:Drivers/STM32F1xx_HAL_Driver/Src/stm32f1xx_hal_dma.c **** 
 1947              		.loc 1 642 0 discriminator 19
 1948 01a6 1432     		adds	r2, r2, #20
 1949 01a8 9342     		cmp	r3, r2
 1950 01aa 25D0     		beq	.L248
 642:Drivers/STM32F1xx_HAL_Driver/Src/stm32f1xx_hal_dma.c **** 
 1951              		.loc 1 642 0 discriminator 21
 1952 01ac 1432     		adds	r2, r2, #20
 1953 01ae 9342     		cmp	r3, r2
 1954 01b0 02D0     		beq	.L264
 642:Drivers/STM32F1xx_HAL_Driver/Src/stm32f1xx_hal_dma.c **** 
 1955              		.loc 1 642 0
 1956 01b2 4FF40032 		mov	r2, #131072
 1957 01b6 03E0     		b	.L216
 1958              	.L264:
 1959 01b8 4FF40052 		mov	r2, #8192
 1960 01bc 00E0     		b	.L216
 1961              	.L240:
 1962 01be 0222     		movs	r2, #2
 1963              	.L216:
 642:Drivers/STM32F1xx_HAL_Driver/Src/stm32f1xx_hal_dma.c **** 
 1964              		.loc 1 642 0 discriminator 46
 1965 01c0 404B     		ldr	r3, .L266+4
 1966 01c2 5A60     		str	r2, [r3, #4]
 1967              	.L217:
 645:Drivers/STM32F1xx_HAL_Driver/Src/stm32f1xx_hal_dma.c **** 
 1968              		.loc 1 645 0 is_stmt 1
 1969 01c4 0023     		movs	r3, #0
 1970 01c6 80F82030 		strb	r3, [r0, #32]
 647:Drivers/STM32F1xx_HAL_Driver/Src/stm32f1xx_hal_dma.c ****     {
 1971              		.loc 1 647 0
 1972 01ca 836A     		ldr	r3, [r0, #40]
 1973 01cc 002B     		cmp	r3, #0
 1974 01ce 75D0     		beq	.L205
 650:Drivers/STM32F1xx_HAL_Driver/Src/stm32f1xx_hal_dma.c ****     }
 1975              		.loc 1 650 0
 1976 01d0 9847     		blx	r3
 1977              	.LVL73:
 1978 01d2 38BD     		pop	{r3, r4, r5, pc}
 1979              	.LVL74:
 1980              	.L241:
 642:Drivers/STM32F1xx_HAL_Driver/Src/stm32f1xx_hal_dma.c **** 
 1981              		.loc 1 642 0
 1982 01d4 2022     		movs	r2, #32
 1983 01d6 F3E7     		b	.L216
ARM GAS  /tmp/ccFYW4Uk.s 			page 57


 1984              	.L242:
 1985 01d8 4FF40072 		mov	r2, #512
 1986 01dc F0E7     		b	.L216
 1987              	.L243:
 1988 01de 4FF40052 		mov	r2, #8192
 1989 01e2 EDE7     		b	.L216
 1990              	.L244:
 1991 01e4 4FF40032 		mov	r2, #131072
 1992 01e8 EAE7     		b	.L216
 1993              	.L245:
 1994 01ea 4FF40012 		mov	r2, #2097152
 1995 01ee E7E7     		b	.L216
 1996              	.L246:
 1997 01f0 0222     		movs	r2, #2
 1998 01f2 E5E7     		b	.L216
 1999              	.L247:
 2000 01f4 2022     		movs	r2, #32
 2001 01f6 E3E7     		b	.L216
 2002              	.L248:
 2003 01f8 4FF40072 		mov	r2, #512
 2004 01fc E0E7     		b	.L216
 2005              	.L215:
 642:Drivers/STM32F1xx_HAL_Driver/Src/stm32f1xx_hal_dma.c **** 
 2006              		.loc 1 642 0 is_stmt 0 discriminator 2
 2007 01fe 324A     		ldr	r2, .L266+8
 2008 0200 9342     		cmp	r3, r2
 2009 0202 24D0     		beq	.L250
 642:Drivers/STM32F1xx_HAL_Driver/Src/stm32f1xx_hal_dma.c **** 
 2010              		.loc 1 642 0 discriminator 47
 2011 0204 1432     		adds	r2, r2, #20
 2012 0206 9342     		cmp	r3, r2
 2013 0208 25D0     		beq	.L251
 642:Drivers/STM32F1xx_HAL_Driver/Src/stm32f1xx_hal_dma.c **** 
 2014              		.loc 1 642 0 discriminator 49
 2015 020a 1432     		adds	r2, r2, #20
 2016 020c 9342     		cmp	r3, r2
 2017 020e 24D0     		beq	.L252
 642:Drivers/STM32F1xx_HAL_Driver/Src/stm32f1xx_hal_dma.c **** 
 2018              		.loc 1 642 0 discriminator 51
 2019 0210 1432     		adds	r2, r2, #20
 2020 0212 9342     		cmp	r3, r2
 2021 0214 24D0     		beq	.L253
 642:Drivers/STM32F1xx_HAL_Driver/Src/stm32f1xx_hal_dma.c **** 
 2022              		.loc 1 642 0 discriminator 53
 2023 0216 1432     		adds	r2, r2, #20
 2024 0218 9342     		cmp	r3, r2
 2025 021a 24D0     		beq	.L254
 642:Drivers/STM32F1xx_HAL_Driver/Src/stm32f1xx_hal_dma.c **** 
 2026              		.loc 1 642 0 discriminator 55
 2027 021c 1432     		adds	r2, r2, #20
 2028 021e 9342     		cmp	r3, r2
 2029 0220 24D0     		beq	.L255
 642:Drivers/STM32F1xx_HAL_Driver/Src/stm32f1xx_hal_dma.c **** 
 2030              		.loc 1 642 0 discriminator 57
 2031 0222 1432     		adds	r2, r2, #20
 2032 0224 9342     		cmp	r3, r2
 2033 0226 24D0     		beq	.L256
ARM GAS  /tmp/ccFYW4Uk.s 			page 58


 642:Drivers/STM32F1xx_HAL_Driver/Src/stm32f1xx_hal_dma.c **** 
 2034              		.loc 1 642 0 discriminator 59
 2035 0228 02F56272 		add	r2, r2, #904
 2036 022c 9342     		cmp	r3, r2
 2037 022e 23D0     		beq	.L257
 642:Drivers/STM32F1xx_HAL_Driver/Src/stm32f1xx_hal_dma.c **** 
 2038              		.loc 1 642 0 discriminator 61
 2039 0230 1432     		adds	r2, r2, #20
 2040 0232 9342     		cmp	r3, r2
 2041 0234 22D0     		beq	.L258
 642:Drivers/STM32F1xx_HAL_Driver/Src/stm32f1xx_hal_dma.c **** 
 2042              		.loc 1 642 0 discriminator 63
 2043 0236 1432     		adds	r2, r2, #20
 2044 0238 9342     		cmp	r3, r2
 2045 023a 21D0     		beq	.L259
 642:Drivers/STM32F1xx_HAL_Driver/Src/stm32f1xx_hal_dma.c **** 
 2046              		.loc 1 642 0 discriminator 65
 2047 023c 1432     		adds	r2, r2, #20
 2048 023e 9342     		cmp	r3, r2
 2049 0240 02D0     		beq	.L265
 642:Drivers/STM32F1xx_HAL_Driver/Src/stm32f1xx_hal_dma.c **** 
 2050              		.loc 1 642 0
 2051 0242 4FF40032 		mov	r2, #131072
 2052 0246 03E0     		b	.L218
 2053              	.L265:
 2054 0248 4FF40052 		mov	r2, #8192
 2055 024c 00E0     		b	.L218
 2056              	.L250:
 2057 024e 0222     		movs	r2, #2
 2058              	.L218:
 642:Drivers/STM32F1xx_HAL_Driver/Src/stm32f1xx_hal_dma.c **** 
 2059              		.loc 1 642 0 discriminator 90
 2060 0250 1E4B     		ldr	r3, .L266+12
 2061 0252 5A60     		str	r2, [r3, #4]
 2062 0254 B6E7     		b	.L217
 2063              	.L251:
 642:Drivers/STM32F1xx_HAL_Driver/Src/stm32f1xx_hal_dma.c **** 
 2064              		.loc 1 642 0
 2065 0256 2022     		movs	r2, #32
 2066 0258 FAE7     		b	.L218
 2067              	.L252:
 2068 025a 4FF40072 		mov	r2, #512
 2069 025e F7E7     		b	.L218
 2070              	.L253:
 2071 0260 4FF40052 		mov	r2, #8192
 2072 0264 F4E7     		b	.L218
 2073              	.L254:
 2074 0266 4FF40032 		mov	r2, #131072
 2075 026a F1E7     		b	.L218
 2076              	.L255:
 2077 026c 4FF40012 		mov	r2, #2097152
 2078 0270 EEE7     		b	.L218
 2079              	.L256:
 2080 0272 4FF00072 		mov	r2, #33554432
 2081 0276 EBE7     		b	.L218
 2082              	.L257:
 2083 0278 0222     		movs	r2, #2
ARM GAS  /tmp/ccFYW4Uk.s 			page 59


 2084 027a E9E7     		b	.L218
 2085              	.L258:
 2086 027c 2022     		movs	r2, #32
 2087 027e E7E7     		b	.L218
 2088              	.L259:
 2089 0280 4FF40072 		mov	r2, #512
 2090 0284 E4E7     		b	.L218
 2091              	.LVL75:
 2092              	.L213:
 655:Drivers/STM32F1xx_HAL_Driver/Src/stm32f1xx_hal_dma.c ****   {
 2093              		.loc 1 655 0 is_stmt 1
 2094 0286 0823     		movs	r3, #8
 2095 0288 03FA01F1 		lsl	r1, r3, r1
 2096 028c 0A42     		tst	r2, r1
 2097 028e 15D0     		beq	.L205
 655:Drivers/STM32F1xx_HAL_Driver/Src/stm32f1xx_hal_dma.c ****   {
 2098              		.loc 1 655 0 is_stmt 0 discriminator 1
 2099 0290 15F0080F 		tst	r5, #8
 2100 0294 12D0     		beq	.L205
 660:Drivers/STM32F1xx_HAL_Driver/Src/stm32f1xx_hal_dma.c **** 
 2101              		.loc 1 660 0 is_stmt 1
 2102 0296 2368     		ldr	r3, [r4]
 2103 0298 23F00E03 		bic	r3, r3, #14
 2104 029c 2360     		str	r3, [r4]
 663:Drivers/STM32F1xx_HAL_Driver/Src/stm32f1xx_hal_dma.c **** 
 2105              		.loc 1 663 0
 2106 029e C16B     		ldr	r1, [r0, #60]
 2107 02a0 026C     		ldr	r2, [r0, #64]
 2108              	.LVL76:
 2109 02a2 0123     		movs	r3, #1
 2110 02a4 03FA02F2 		lsl	r2, r3, r2
 2111 02a8 4A60     		str	r2, [r1, #4]
 666:Drivers/STM32F1xx_HAL_Driver/Src/stm32f1xx_hal_dma.c **** 
 2112              		.loc 1 666 0
 2113 02aa 8363     		str	r3, [r0, #56]
 669:Drivers/STM32F1xx_HAL_Driver/Src/stm32f1xx_hal_dma.c **** 
 2114              		.loc 1 669 0
 2115 02ac 80F82130 		strb	r3, [r0, #33]
 672:Drivers/STM32F1xx_HAL_Driver/Src/stm32f1xx_hal_dma.c **** 
 2116              		.loc 1 672 0
 2117 02b0 0023     		movs	r3, #0
 2118 02b2 80F82030 		strb	r3, [r0, #32]
 674:Drivers/STM32F1xx_HAL_Driver/Src/stm32f1xx_hal_dma.c ****     {
 2119              		.loc 1 674 0
 2120 02b6 036B     		ldr	r3, [r0, #48]
 2121 02b8 03B1     		cbz	r3, .L205
 677:Drivers/STM32F1xx_HAL_Driver/Src/stm32f1xx_hal_dma.c ****     }
 2122              		.loc 1 677 0
 2123 02ba 9847     		blx	r3
 2124              	.LVL77:
 2125              	.L205:
 2126 02bc 38BD     		pop	{r3, r4, r5, pc}
 2127              	.LVL78:
 2128              	.L267:
 2129 02be 00BF     		.align	2
 2130              	.L266:
 2131 02c0 80000240 		.word	1073873024
ARM GAS  /tmp/ccFYW4Uk.s 			page 60


 2132 02c4 00040240 		.word	1073873920
 2133 02c8 08000240 		.word	1073872904
 2134 02cc 00000240 		.word	1073872896
 2135              		.cfi_endproc
 2136              	.LFE72:
 2138              		.section	.text.HAL_DMA_RegisterCallback,"ax",%progbits
 2139              		.align	1
 2140              		.global	HAL_DMA_RegisterCallback
 2141              		.syntax unified
 2142              		.thumb
 2143              		.thumb_func
 2144              		.fpu softvfp
 2146              	HAL_DMA_RegisterCallback:
 2147              	.LFB73:
 694:Drivers/STM32F1xx_HAL_Driver/Src/stm32f1xx_hal_dma.c ****   HAL_StatusTypeDef status = HAL_OK;
 2148              		.loc 1 694 0
 2149              		.cfi_startproc
 2150              		@ args = 0, pretend = 0, frame = 0
 2151              		@ frame_needed = 0, uses_anonymous_args = 0
 2152              		@ link register save eliminated.
 2153              	.LVL79:
 2154 0000 0346     		mov	r3, r0
 2155              	.LVL80:
 698:Drivers/STM32F1xx_HAL_Driver/Src/stm32f1xx_hal_dma.c ****   
 2156              		.loc 1 698 0
 2157 0002 90F82000 		ldrb	r0, [r0, #32]	@ zero_extendqisi2
 2158              	.LVL81:
 2159 0006 0128     		cmp	r0, #1
 2160 0008 1FD0     		beq	.L276
 698:Drivers/STM32F1xx_HAL_Driver/Src/stm32f1xx_hal_dma.c ****   
 2161              		.loc 1 698 0 is_stmt 0 discriminator 2
 2162 000a 0120     		movs	r0, #1
 2163 000c 83F82000 		strb	r0, [r3, #32]
 700:Drivers/STM32F1xx_HAL_Driver/Src/stm32f1xx_hal_dma.c ****   {
 2164              		.loc 1 700 0 is_stmt 1 discriminator 2
 2165 0010 93F82100 		ldrb	r0, [r3, #33]	@ zero_extendqisi2
 2166 0014 0128     		cmp	r0, #1
 2167 0016 04D0     		beq	.L279
 727:Drivers/STM32F1xx_HAL_Driver/Src/stm32f1xx_hal_dma.c ****   } 
 2168              		.loc 1 727 0
 2169 0018 0120     		movs	r0, #1
 2170              	.L270:
 2171              	.LVL82:
 731:Drivers/STM32F1xx_HAL_Driver/Src/stm32f1xx_hal_dma.c ****   
 2172              		.loc 1 731 0
 2173 001a 0022     		movs	r2, #0
 2174              	.LVL83:
 2175 001c 83F82020 		strb	r2, [r3, #32]
 733:Drivers/STM32F1xx_HAL_Driver/Src/stm32f1xx_hal_dma.c **** }
 2176              		.loc 1 733 0
 2177 0020 7047     		bx	lr
 2178              	.LVL84:
 2179              	.L279:
 702:Drivers/STM32F1xx_HAL_Driver/Src/stm32f1xx_hal_dma.c ****     {
 2180              		.loc 1 702 0
 2181 0022 0329     		cmp	r1, #3
 2182 0024 0FD8     		bhi	.L278
ARM GAS  /tmp/ccFYW4Uk.s 			page 61


 2183 0026 DFE801F0 		tbb	[pc, r1]
 2184              	.L272:
 2185 002a 02       		.byte	(.L271-.L272)/2
 2186 002b 05       		.byte	(.L273-.L272)/2
 2187 002c 08       		.byte	(.L274-.L272)/2
 2188 002d 0B       		.byte	(.L275-.L272)/2
 2189              		.p2align 1
 2190              	.L271:
 705:Drivers/STM32F1xx_HAL_Driver/Src/stm32f1xx_hal_dma.c ****       break;
 2191              		.loc 1 705 0
 2192 002e 9A62     		str	r2, [r3, #40]
 695:Drivers/STM32F1xx_HAL_Driver/Src/stm32f1xx_hal_dma.c ****   
 2193              		.loc 1 695 0
 2194 0030 0020     		movs	r0, #0
 706:Drivers/STM32F1xx_HAL_Driver/Src/stm32f1xx_hal_dma.c ****       
 2195              		.loc 1 706 0
 2196 0032 F2E7     		b	.L270
 2197              	.L273:
 709:Drivers/STM32F1xx_HAL_Driver/Src/stm32f1xx_hal_dma.c ****       break;         
 2198              		.loc 1 709 0
 2199 0034 DA62     		str	r2, [r3, #44]
 695:Drivers/STM32F1xx_HAL_Driver/Src/stm32f1xx_hal_dma.c ****   
 2200              		.loc 1 695 0
 2201 0036 0020     		movs	r0, #0
 710:Drivers/STM32F1xx_HAL_Driver/Src/stm32f1xx_hal_dma.c **** 
 2202              		.loc 1 710 0
 2203 0038 EFE7     		b	.L270
 2204              	.L274:
 713:Drivers/STM32F1xx_HAL_Driver/Src/stm32f1xx_hal_dma.c ****       break;         
 2205              		.loc 1 713 0
 2206 003a 1A63     		str	r2, [r3, #48]
 695:Drivers/STM32F1xx_HAL_Driver/Src/stm32f1xx_hal_dma.c ****   
 2207              		.loc 1 695 0
 2208 003c 0020     		movs	r0, #0
 714:Drivers/STM32F1xx_HAL_Driver/Src/stm32f1xx_hal_dma.c ****       
 2209              		.loc 1 714 0
 2210 003e ECE7     		b	.L270
 2211              	.L275:
 717:Drivers/STM32F1xx_HAL_Driver/Src/stm32f1xx_hal_dma.c ****       break; 
 2212              		.loc 1 717 0
 2213 0040 5A63     		str	r2, [r3, #52]
 695:Drivers/STM32F1xx_HAL_Driver/Src/stm32f1xx_hal_dma.c ****   
 2214              		.loc 1 695 0
 2215 0042 0020     		movs	r0, #0
 718:Drivers/STM32F1xx_HAL_Driver/Src/stm32f1xx_hal_dma.c ****       
 2216              		.loc 1 718 0
 2217 0044 E9E7     		b	.L270
 2218              	.L278:
 721:Drivers/STM32F1xx_HAL_Driver/Src/stm32f1xx_hal_dma.c ****       break;                                                            
 2219              		.loc 1 721 0
 2220 0046 0120     		movs	r0, #1
 2221 0048 E7E7     		b	.L270
 2222              	.L276:
 698:Drivers/STM32F1xx_HAL_Driver/Src/stm32f1xx_hal_dma.c ****   
 2223              		.loc 1 698 0
 2224 004a 0220     		movs	r0, #2
 734:Drivers/STM32F1xx_HAL_Driver/Src/stm32f1xx_hal_dma.c **** 
ARM GAS  /tmp/ccFYW4Uk.s 			page 62


 2225              		.loc 1 734 0
 2226 004c 7047     		bx	lr
 2227              		.cfi_endproc
 2228              	.LFE73:
 2230              		.section	.text.HAL_DMA_UnRegisterCallback,"ax",%progbits
 2231              		.align	1
 2232              		.global	HAL_DMA_UnRegisterCallback
 2233              		.syntax unified
 2234              		.thumb
 2235              		.thumb_func
 2236              		.fpu softvfp
 2238              	HAL_DMA_UnRegisterCallback:
 2239              	.LFB74:
 745:Drivers/STM32F1xx_HAL_Driver/Src/stm32f1xx_hal_dma.c ****   HAL_StatusTypeDef status = HAL_OK;
 2240              		.loc 1 745 0
 2241              		.cfi_startproc
 2242              		@ args = 0, pretend = 0, frame = 0
 2243              		@ frame_needed = 0, uses_anonymous_args = 0
 2244              		@ link register save eliminated.
 2245              	.LVL85:
 2246 0000 0346     		mov	r3, r0
 2247              	.LVL86:
 749:Drivers/STM32F1xx_HAL_Driver/Src/stm32f1xx_hal_dma.c ****   
 2248              		.loc 1 749 0
 2249 0002 90F82020 		ldrb	r2, [r0, #32]	@ zero_extendqisi2
 2250 0006 012A     		cmp	r2, #1
 2251 0008 26D0     		beq	.L289
 749:Drivers/STM32F1xx_HAL_Driver/Src/stm32f1xx_hal_dma.c ****   
 2252              		.loc 1 749 0 is_stmt 0 discriminator 2
 2253 000a 0122     		movs	r2, #1
 2254 000c 80F82020 		strb	r2, [r0, #32]
 751:Drivers/STM32F1xx_HAL_Driver/Src/stm32f1xx_hal_dma.c ****   {
 2255              		.loc 1 751 0 is_stmt 1 discriminator 2
 2256 0010 90F82120 		ldrb	r2, [r0, #33]	@ zero_extendqisi2
 2257 0014 012A     		cmp	r2, #1
 2258 0016 04D0     		beq	.L292
 785:Drivers/STM32F1xx_HAL_Driver/Src/stm32f1xx_hal_dma.c ****   } 
 2259              		.loc 1 785 0
 2260 0018 0120     		movs	r0, #1
 2261              	.LVL87:
 2262              	.L282:
 789:Drivers/STM32F1xx_HAL_Driver/Src/stm32f1xx_hal_dma.c ****   
 2263              		.loc 1 789 0
 2264 001a 0022     		movs	r2, #0
 2265 001c 83F82020 		strb	r2, [r3, #32]
 791:Drivers/STM32F1xx_HAL_Driver/Src/stm32f1xx_hal_dma.c **** }
 2266              		.loc 1 791 0
 2267 0020 7047     		bx	lr
 2268              	.LVL88:
 2269              	.L292:
 753:Drivers/STM32F1xx_HAL_Driver/Src/stm32f1xx_hal_dma.c ****     {
 2270              		.loc 1 753 0
 2271 0022 0429     		cmp	r1, #4
 2272 0024 16D8     		bhi	.L291
 2273 0026 DFE801F0 		tbb	[pc, r1]
 2274              	.L284:
 2275 002a 03       		.byte	(.L283-.L284)/2
ARM GAS  /tmp/ccFYW4Uk.s 			page 63


 2276 002b 06       		.byte	(.L285-.L284)/2
 2277 002c 09       		.byte	(.L286-.L284)/2
 2278 002d 0C       		.byte	(.L287-.L284)/2
 2279 002e 0F       		.byte	(.L288-.L284)/2
 2280 002f 00       		.p2align 1
 2281              	.L283:
 756:Drivers/STM32F1xx_HAL_Driver/Src/stm32f1xx_hal_dma.c ****       break;
 2282              		.loc 1 756 0
 2283 0030 0020     		movs	r0, #0
 2284              	.LVL89:
 2285 0032 9862     		str	r0, [r3, #40]
 757:Drivers/STM32F1xx_HAL_Driver/Src/stm32f1xx_hal_dma.c **** 
 2286              		.loc 1 757 0
 2287 0034 F1E7     		b	.L282
 2288              	.LVL90:
 2289              	.L285:
 760:Drivers/STM32F1xx_HAL_Driver/Src/stm32f1xx_hal_dma.c ****       break;         
 2290              		.loc 1 760 0
 2291 0036 0020     		movs	r0, #0
 2292              	.LVL91:
 2293 0038 D862     		str	r0, [r3, #44]
 761:Drivers/STM32F1xx_HAL_Driver/Src/stm32f1xx_hal_dma.c **** 
 2294              		.loc 1 761 0
 2295 003a EEE7     		b	.L282
 2296              	.LVL92:
 2297              	.L286:
 764:Drivers/STM32F1xx_HAL_Driver/Src/stm32f1xx_hal_dma.c ****       break;         
 2298              		.loc 1 764 0
 2299 003c 0020     		movs	r0, #0
 2300              	.LVL93:
 2301 003e 1863     		str	r0, [r3, #48]
 765:Drivers/STM32F1xx_HAL_Driver/Src/stm32f1xx_hal_dma.c **** 
 2302              		.loc 1 765 0
 2303 0040 EBE7     		b	.L282
 2304              	.LVL94:
 2305              	.L287:
 768:Drivers/STM32F1xx_HAL_Driver/Src/stm32f1xx_hal_dma.c ****       break; 
 2306              		.loc 1 768 0
 2307 0042 0020     		movs	r0, #0
 2308              	.LVL95:
 2309 0044 5863     		str	r0, [r3, #52]
 769:Drivers/STM32F1xx_HAL_Driver/Src/stm32f1xx_hal_dma.c **** 
 2310              		.loc 1 769 0
 2311 0046 E8E7     		b	.L282
 2312              	.LVL96:
 2313              	.L288:
 772:Drivers/STM32F1xx_HAL_Driver/Src/stm32f1xx_hal_dma.c ****       hdma->XferHalfCpltCallback = NULL;
 2314              		.loc 1 772 0
 2315 0048 0020     		movs	r0, #0
 2316              	.LVL97:
 2317 004a 9862     		str	r0, [r3, #40]
 773:Drivers/STM32F1xx_HAL_Driver/Src/stm32f1xx_hal_dma.c ****       hdma->XferErrorCallback = NULL;
 2318              		.loc 1 773 0
 2319 004c D862     		str	r0, [r3, #44]
 774:Drivers/STM32F1xx_HAL_Driver/Src/stm32f1xx_hal_dma.c ****       hdma->XferAbortCallback = NULL;
 2320              		.loc 1 774 0
 2321 004e 1863     		str	r0, [r3, #48]
ARM GAS  /tmp/ccFYW4Uk.s 			page 64


 775:Drivers/STM32F1xx_HAL_Driver/Src/stm32f1xx_hal_dma.c ****       break; 
 2322              		.loc 1 775 0
 2323 0050 5863     		str	r0, [r3, #52]
 776:Drivers/STM32F1xx_HAL_Driver/Src/stm32f1xx_hal_dma.c **** 
 2324              		.loc 1 776 0
 2325 0052 E2E7     		b	.L282
 2326              	.LVL98:
 2327              	.L291:
 779:Drivers/STM32F1xx_HAL_Driver/Src/stm32f1xx_hal_dma.c ****       break;
 2328              		.loc 1 779 0
 2329 0054 0120     		movs	r0, #1
 2330              	.LVL99:
 2331 0056 E0E7     		b	.L282
 2332              	.LVL100:
 2333              	.L289:
 749:Drivers/STM32F1xx_HAL_Driver/Src/stm32f1xx_hal_dma.c ****   
 2334              		.loc 1 749 0
 2335 0058 0220     		movs	r0, #2
 2336              	.LVL101:
 792:Drivers/STM32F1xx_HAL_Driver/Src/stm32f1xx_hal_dma.c ****   
 2337              		.loc 1 792 0
 2338 005a 7047     		bx	lr
 2339              		.cfi_endproc
 2340              	.LFE74:
 2342              		.section	.text.HAL_DMA_GetState,"ax",%progbits
 2343              		.align	1
 2344              		.global	HAL_DMA_GetState
 2345              		.syntax unified
 2346              		.thumb
 2347              		.thumb_func
 2348              		.fpu softvfp
 2350              	HAL_DMA_GetState:
 2351              	.LFB75:
 821:Drivers/STM32F1xx_HAL_Driver/Src/stm32f1xx_hal_dma.c ****   /* Return DMA handle state */
 2352              		.loc 1 821 0
 2353              		.cfi_startproc
 2354              		@ args = 0, pretend = 0, frame = 0
 2355              		@ frame_needed = 0, uses_anonymous_args = 0
 2356              		@ link register save eliminated.
 2357              	.LVL102:
 824:Drivers/STM32F1xx_HAL_Driver/Src/stm32f1xx_hal_dma.c **** 
 2358              		.loc 1 824 0
 2359 0000 90F82100 		ldrb	r0, [r0, #33]	@ zero_extendqisi2
 2360              	.LVL103:
 2361 0004 7047     		bx	lr
 2362              		.cfi_endproc
 2363              	.LFE75:
 2365              		.section	.text.HAL_DMA_GetError,"ax",%progbits
 2366              		.align	1
 2367              		.global	HAL_DMA_GetError
 2368              		.syntax unified
 2369              		.thumb
 2370              		.thumb_func
 2371              		.fpu softvfp
 2373              	HAL_DMA_GetError:
 2374              	.LFB76:
 833:Drivers/STM32F1xx_HAL_Driver/Src/stm32f1xx_hal_dma.c ****   return hdma->ErrorCode;
ARM GAS  /tmp/ccFYW4Uk.s 			page 65


 2375              		.loc 1 833 0
 2376              		.cfi_startproc
 2377              		@ args = 0, pretend = 0, frame = 0
 2378              		@ frame_needed = 0, uses_anonymous_args = 0
 2379              		@ link register save eliminated.
 2380              	.LVL104:
 834:Drivers/STM32F1xx_HAL_Driver/Src/stm32f1xx_hal_dma.c **** }
 2381              		.loc 1 834 0
 2382 0000 806B     		ldr	r0, [r0, #56]
 2383              	.LVL105:
 835:Drivers/STM32F1xx_HAL_Driver/Src/stm32f1xx_hal_dma.c **** 
 2384              		.loc 1 835 0
 2385 0002 7047     		bx	lr
 2386              		.cfi_endproc
 2387              	.LFE76:
 2389              		.text
 2390              	.Letext0:
 2391              		.file 2 "/usr/include/newlib/machine/_default_types.h"
 2392              		.file 3 "/usr/include/newlib/sys/_stdint.h"
 2393              		.file 4 "Drivers/CMSIS/Include/core_cm3.h"
 2394              		.file 5 "Drivers/CMSIS/Device/ST/STM32F1xx/Include/system_stm32f1xx.h"
 2395              		.file 6 "Drivers/CMSIS/Device/ST/STM32F1xx/Include/stm32f105xc.h"
 2396              		.file 7 "Drivers/CMSIS/Device/ST/STM32F1xx/Include/stm32f1xx.h"
 2397              		.file 8 "Drivers/STM32F1xx_HAL_Driver/Inc/stm32f1xx_hal_def.h"
 2398              		.file 9 "Drivers/STM32F1xx_HAL_Driver/Inc/stm32f1xx_hal_dma.h"
 2399              		.file 10 "Drivers/STM32F1xx_HAL_Driver/Inc/stm32f1xx_hal.h"
ARM GAS  /tmp/ccFYW4Uk.s 			page 66

