ARM GAS  /tmp/ccpKoqpo.s 			page 1


   1              		.cpu cortex-m3
   2              		.eabi_attribute 20, 1
   3              		.eabi_attribute 21, 1
   4              		.eabi_attribute 23, 3
   5              		.eabi_attribute 24, 1
   6              		.eabi_attribute 25, 1
   7              		.eabi_attribute 26, 1
   8              		.eabi_attribute 30, 1
   9              		.eabi_attribute 34, 1
  10              		.eabi_attribute 18, 4
  11              		.file	"tasks.c"
  12              		.text
  13              	.Ltext0:
  14              		.cfi_sections	.debug_frame
  15              		.section	.text.HAL_TIM_PeriodElapsedCallback,"ax",%progbits
  16              		.align	1
  17              		.global	HAL_TIM_PeriodElapsedCallback
  18              		.arch armv7-m
  19              		.syntax unified
  20              		.thumb
  21              		.thumb_func
  22              		.fpu softvfp
  24              	HAL_TIM_PeriodElapsedCallback:
  25              	.LVL0:
  26              	.LFB68:
  27              		.file 1 "Core/Src/tasks.c"
   1:Core/Src/tasks.c **** #include "tasks.h"
   2:Core/Src/tasks.c **** #include "main.h"
   3:Core/Src/tasks.c **** #include "can_setup.h"
   4:Core/Src/tasks.c **** #include "gauges.h"
   5:Core/Src/tasks.c **** #include "vcu.h"
   6:Core/Src/tasks.c **** #include "test.h"
   7:Core/Src/tasks.c **** #include "water_pump.h"
   8:Core/Src/tasks.c **** #include "dcdc.h"
   9:Core/Src/tasks.c **** #include "tasks.h"
  10:Core/Src/tasks.c **** 
  11:Core/Src/tasks.c **** extern TIM_HandleTypeDef htim6;
  12:Core/Src/tasks.c **** extern IWDG_HandleTypeDef hiwdg;
  13:Core/Src/tasks.c **** 
  14:Core/Src/tasks.c **** #define G_MAX_MS_COUNTER 4294967296
  15:Core/Src/tasks.c **** 
  16:Core/Src/tasks.c **** uint32_t G_mSCounter = 0;
  17:Core/Src/tasks.c **** uint8_t G_10mStask = 0;
  18:Core/Src/tasks.c **** uint8_t G_100mStask = 0;
  19:Core/Src/tasks.c **** uint8_t G_250mStask = 0;
  20:Core/Src/tasks.c **** uint8_t G_500mStask = 0;
  21:Core/Src/tasks.c **** 
  22:Core/Src/tasks.c **** void HAL_TIM_PeriodElapsedCallback(TIM_HandleTypeDef *htim)
  23:Core/Src/tasks.c **** {
  28              		.loc 1 23 1 view -0
  29              		.cfi_startproc
  30              		@ args = 0, pretend = 0, frame = 0
  31              		@ frame_needed = 0, uses_anonymous_args = 0
  32              		@ link register save eliminated.
  24:Core/Src/tasks.c **** 
  25:Core/Src/tasks.c ****     /* htim17 1ms */
  26:Core/Src/tasks.c ****     if (&htim6 == htim)
ARM GAS  /tmp/ccpKoqpo.s 			page 2


  33              		.loc 1 26 5 view .LVU1
  34              		.loc 1 26 8 is_stmt 0 view .LVU2
  35 0000 234B     		ldr	r3, .L8
  36 0002 8342     		cmp	r3, r0
  37 0004 00D0     		beq	.L7
  38              	.L1:
  27:Core/Src/tasks.c ****     {
  28:Core/Src/tasks.c **** 
  29:Core/Src/tasks.c ****         static uint16_t cpt2 = 0;
  30:Core/Src/tasks.c **** 
  31:Core/Src/tasks.c ****         G_mSCounter++;
  32:Core/Src/tasks.c **** 
  33:Core/Src/tasks.c ****         if (G_mSCounter % 500 == 0)
  34:Core/Src/tasks.c ****         {
  35:Core/Src/tasks.c ****             G_500mStask = 1;
  36:Core/Src/tasks.c ****         }
  37:Core/Src/tasks.c **** 
  38:Core/Src/tasks.c ****         if (G_mSCounter >= G_MAX_MS_COUNTER)
  39:Core/Src/tasks.c ****         {
  40:Core/Src/tasks.c ****             G_mSCounter = 0;
  41:Core/Src/tasks.c ****         }
  42:Core/Src/tasks.c **** 
  43:Core/Src/tasks.c ****         cpt2++;
  44:Core/Src/tasks.c **** 
  45:Core/Src/tasks.c ****         /* 1 S, reinitiate cpt2 */
  46:Core/Src/tasks.c ****         if (cpt2 >= 1000)
  47:Core/Src/tasks.c ****         {
  48:Core/Src/tasks.c ****             cpt2 = 0;
  49:Core/Src/tasks.c ****         }
  50:Core/Src/tasks.c **** 
  51:Core/Src/tasks.c ****         /* 100 mS */
  52:Core/Src/tasks.c ****         if (cpt2 % 10 == 0)
  53:Core/Src/tasks.c ****         {
  54:Core/Src/tasks.c ****             G_10mStask = 1;
  55:Core/Src/tasks.c ****         }
  56:Core/Src/tasks.c **** 
  57:Core/Src/tasks.c ****         if (cpt2 % 100 == 0)
  58:Core/Src/tasks.c ****         {
  59:Core/Src/tasks.c ****             G_100mStask = 1;
  60:Core/Src/tasks.c ****         }
  61:Core/Src/tasks.c **** 
  62:Core/Src/tasks.c ****         if (cpt2 % 250 == 0)
  63:Core/Src/tasks.c ****         {
  64:Core/Src/tasks.c **** 
  65:Core/Src/tasks.c ****             G_250mStask = 1;
  66:Core/Src/tasks.c ****         }
  67:Core/Src/tasks.c ****     }
  68:Core/Src/tasks.c **** }
  39              		.loc 1 68 1 view .LVU3
  40 0006 7047     		bx	lr
  41              	.L7:
  42              	.LBB2:
  29:Core/Src/tasks.c **** 
  43              		.loc 1 29 9 is_stmt 1 view .LVU4
  31:Core/Src/tasks.c **** 
  44              		.loc 1 31 9 view .LVU5
  31:Core/Src/tasks.c **** 
ARM GAS  /tmp/ccpKoqpo.s 			page 3


  45              		.loc 1 31 20 is_stmt 0 view .LVU6
  46 0008 224B     		ldr	r3, .L8+4
  47 000a 1A68     		ldr	r2, [r3]
  48 000c 0132     		adds	r2, r2, #1
  49 000e 1A60     		str	r2, [r3]
  33:Core/Src/tasks.c ****         {
  50              		.loc 1 33 9 is_stmt 1 view .LVU7
  33:Core/Src/tasks.c ****         {
  51              		.loc 1 33 25 is_stmt 0 view .LVU8
  52 0010 214B     		ldr	r3, .L8+8
  53 0012 A3FB0213 		umull	r1, r3, r3, r2
  54 0016 5B09     		lsrs	r3, r3, #5
  55 0018 4FF4FA71 		mov	r1, #500
  56 001c 01FB1323 		mls	r3, r1, r3, r2
  33:Core/Src/tasks.c ****         {
  57              		.loc 1 33 12 view .LVU9
  58 0020 13B9     		cbnz	r3, .L3
  35:Core/Src/tasks.c ****         }
  59              		.loc 1 35 13 is_stmt 1 view .LVU10
  35:Core/Src/tasks.c ****         }
  60              		.loc 1 35 25 is_stmt 0 view .LVU11
  61 0022 1E4B     		ldr	r3, .L8+12
  62 0024 0122     		movs	r2, #1
  63 0026 1A70     		strb	r2, [r3]
  64              	.L3:
  38:Core/Src/tasks.c ****         {
  65              		.loc 1 38 9 is_stmt 1 view .LVU12
  43:Core/Src/tasks.c **** 
  66              		.loc 1 43 9 view .LVU13
  43:Core/Src/tasks.c **** 
  67              		.loc 1 43 13 is_stmt 0 view .LVU14
  68 0028 1D4A     		ldr	r2, .L8+16
  69 002a 1388     		ldrh	r3, [r2]
  70 002c 0133     		adds	r3, r3, #1
  71 002e 9BB2     		uxth	r3, r3
  72 0030 1380     		strh	r3, [r2]	@ movhi
  46:Core/Src/tasks.c ****         {
  73              		.loc 1 46 9 is_stmt 1 view .LVU15
  46:Core/Src/tasks.c ****         {
  74              		.loc 1 46 12 is_stmt 0 view .LVU16
  75 0032 B3F57A7F 		cmp	r3, #1000
  76 0036 02D3     		bcc	.L4
  48:Core/Src/tasks.c ****         }
  77              		.loc 1 48 13 is_stmt 1 view .LVU17
  48:Core/Src/tasks.c ****         }
  78              		.loc 1 48 18 is_stmt 0 view .LVU18
  79 0038 1346     		mov	r3, r2
  80 003a 0022     		movs	r2, #0
  81 003c 1A80     		strh	r2, [r3]	@ movhi
  82              	.L4:
  52:Core/Src/tasks.c ****         {
  83              		.loc 1 52 9 is_stmt 1 view .LVU19
  52:Core/Src/tasks.c ****         {
  84              		.loc 1 52 23 is_stmt 0 view .LVU20
  85 003e 184B     		ldr	r3, .L8+16
  86 0040 1988     		ldrh	r1, [r3]
  87 0042 184B     		ldr	r3, .L8+20
ARM GAS  /tmp/ccpKoqpo.s 			page 4


  88 0044 A3FB0123 		umull	r2, r3, r3, r1
  89 0048 DB08     		lsrs	r3, r3, #3
  90 004a 03EB8303 		add	r3, r3, r3, lsl #2
  91 004e A1EB4303 		sub	r3, r1, r3, lsl #1
  92 0052 9BB2     		uxth	r3, r3
  52:Core/Src/tasks.c ****         {
  93              		.loc 1 52 12 view .LVU21
  94 0054 13B9     		cbnz	r3, .L5
  54:Core/Src/tasks.c ****         }
  95              		.loc 1 54 13 is_stmt 1 view .LVU22
  54:Core/Src/tasks.c ****         }
  96              		.loc 1 54 24 is_stmt 0 view .LVU23
  97 0056 144B     		ldr	r3, .L8+24
  98 0058 0122     		movs	r2, #1
  99 005a 1A70     		strb	r2, [r3]
 100              	.L5:
  57:Core/Src/tasks.c ****         {
 101              		.loc 1 57 9 is_stmt 1 view .LVU24
  57:Core/Src/tasks.c ****         {
 102              		.loc 1 57 24 is_stmt 0 view .LVU25
 103 005c 134A     		ldr	r2, .L8+28
 104 005e A2FB0132 		umull	r3, r2, r2, r1
 105 0062 5209     		lsrs	r2, r2, #5
 106 0064 6423     		movs	r3, #100
 107 0066 03FB1212 		mls	r2, r3, r2, r1
 108 006a 92B2     		uxth	r2, r2
  57:Core/Src/tasks.c ****         {
 109              		.loc 1 57 12 view .LVU26
 110 006c 12B9     		cbnz	r2, .L6
  59:Core/Src/tasks.c ****         }
 111              		.loc 1 59 13 is_stmt 1 view .LVU27
  59:Core/Src/tasks.c ****         }
 112              		.loc 1 59 25 is_stmt 0 view .LVU28
 113 006e 104B     		ldr	r3, .L8+32
 114 0070 0122     		movs	r2, #1
 115 0072 1A70     		strb	r2, [r3]
 116              	.L6:
  62:Core/Src/tasks.c ****         {
 117              		.loc 1 62 9 is_stmt 1 view .LVU29
  62:Core/Src/tasks.c ****         {
 118              		.loc 1 62 24 is_stmt 0 view .LVU30
 119 0074 084B     		ldr	r3, .L8+8
 120 0076 A3FB0123 		umull	r2, r3, r3, r1
 121 007a 1B09     		lsrs	r3, r3, #4
 122 007c FA22     		movs	r2, #250
 123 007e 02FB1313 		mls	r3, r2, r3, r1
 124 0082 9BB2     		uxth	r3, r3
  62:Core/Src/tasks.c ****         {
 125              		.loc 1 62 12 view .LVU31
 126 0084 002B     		cmp	r3, #0
 127 0086 BED1     		bne	.L1
  65:Core/Src/tasks.c ****         }
 128              		.loc 1 65 13 is_stmt 1 view .LVU32
  65:Core/Src/tasks.c ****         }
 129              		.loc 1 65 25 is_stmt 0 view .LVU33
 130 0088 0A4B     		ldr	r3, .L8+36
 131 008a 0122     		movs	r2, #1
ARM GAS  /tmp/ccpKoqpo.s 			page 5


 132 008c 1A70     		strb	r2, [r3]
 133              	.LBE2:
 134              		.loc 1 68 1 view .LVU34
 135 008e BAE7     		b	.L1
 136              	.L9:
 137              		.align	2
 138              	.L8:
 139 0090 00000000 		.word	htim6
 140 0094 00000000 		.word	.LANCHOR0
 141 0098 D34D6210 		.word	274877907
 142 009c 00000000 		.word	.LANCHOR1
 143 00a0 00000000 		.word	.LANCHOR2
 144 00a4 CDCCCCCC 		.word	-858993459
 145 00a8 00000000 		.word	.LANCHOR3
 146 00ac 1F85EB51 		.word	1374389535
 147 00b0 00000000 		.word	.LANCHOR4
 148 00b4 00000000 		.word	.LANCHOR5
 149              		.cfi_endproc
 150              	.LFE68:
 152              		.section	.text.taskHandler,"ax",%progbits
 153              		.align	1
 154              		.global	taskHandler
 155              		.syntax unified
 156              		.thumb
 157              		.thumb_func
 158              		.fpu softvfp
 160              	taskHandler:
 161              	.LFB69:
  69:Core/Src/tasks.c **** 
  70:Core/Src/tasks.c **** void taskHandler(void)
  71:Core/Src/tasks.c **** {
 162              		.loc 1 71 1 is_stmt 1 view -0
 163              		.cfi_startproc
 164              		@ args = 0, pretend = 0, frame = 0
 165              		@ frame_needed = 0, uses_anonymous_args = 0
 166 0000 10B5     		push	{r4, lr}
 167              		.cfi_def_cfa_offset 8
 168              		.cfi_offset 4, -8
 169              		.cfi_offset 14, -4
  72:Core/Src/tasks.c ****     if (G_10mStask)
 170              		.loc 1 72 5 view .LVU36
 171              		.loc 1 72 9 is_stmt 0 view .LVU37
 172 0002 254B     		ldr	r3, .L19
 173 0004 1B78     		ldrb	r3, [r3]	@ zero_extendqisi2
 174              		.loc 1 72 8 view .LVU38
 175 0006 63B9     		cbnz	r3, .L16
 176              	.L11:
  73:Core/Src/tasks.c ****     {
  74:Core/Src/tasks.c ****         vcuState();
  75:Core/Src/tasks.c ****         throttleHandler();
  76:Core/Src/tasks.c ****         canIOsend();
  77:Core/Src/tasks.c ****         regenHandler();
  78:Core/Src/tasks.c ****         brakeHandler();
  79:Core/Src/tasks.c ****         dcdcHandler(vcu.state);
  80:Core/Src/tasks.c ****         G_10mStask = 0;
  81:Core/Src/tasks.c ****     }
  82:Core/Src/tasks.c **** 
ARM GAS  /tmp/ccpKoqpo.s 			page 6


  83:Core/Src/tasks.c ****     if (G_100mStask)
 177              		.loc 1 83 5 is_stmt 1 view .LVU39
 178              		.loc 1 83 9 is_stmt 0 view .LVU40
 179 0008 244B     		ldr	r3, .L19+4
 180 000a 1B78     		ldrb	r3, [r3]	@ zero_extendqisi2
 181              		.loc 1 83 8 view .LVU41
 182 000c DBB9     		cbnz	r3, .L17
 183              	.L12:
  84:Core/Src/tasks.c ****     {
  85:Core/Src/tasks.c ****         updateSpeed(ldu.rpm);
  86:Core/Src/tasks.c ****         updateTach(ldu.amps);
  87:Core/Src/tasks.c ****         ioHandler();
  88:Core/Src/tasks.c ****         HAL_GPIO_TogglePin(LED_GPIO_Port, LED_Pin);
  89:Core/Src/tasks.c ****         G_100mStask = 0;
  90:Core/Src/tasks.c ****     }
  91:Core/Src/tasks.c **** 
  92:Core/Src/tasks.c ****     if (G_250mStask)
 184              		.loc 1 92 5 is_stmt 1 view .LVU42
 185              		.loc 1 92 9 is_stmt 0 view .LVU43
 186 000e 244B     		ldr	r3, .L19+8
 187 0010 1B78     		ldrb	r3, [r3]	@ zero_extendqisi2
 188              		.loc 1 92 8 view .LVU44
 189 0012 63BB     		cbnz	r3, .L18
 190              	.L13:
  93:Core/Src/tasks.c ****     {
  94:Core/Src/tasks.c ****         updateSOC(BMS[0].chargeState, ldu.amps);
  95:Core/Src/tasks.c ****         updateTemp(ldu.hsTemp);
  96:Core/Src/tasks.c ****         vehicleComms();
  97:Core/Src/tasks.c ****         encoderHandler();
  98:Core/Src/tasks.c ****         wpHandler();
  99:Core/Src/tasks.c ****         G_250mStask = 0;
 100:Core/Src/tasks.c ****     }
 101:Core/Src/tasks.c **** 
 102:Core/Src/tasks.c ****     if (G_500mStask)
 191              		.loc 1 102 5 is_stmt 1 view .LVU45
 192              		.loc 1 102 9 is_stmt 0 view .LVU46
 193 0014 234B     		ldr	r3, .L19+12
 194 0016 1B78     		ldrb	r3, [r3]	@ zero_extendqisi2
 195              		.loc 1 102 8 view .LVU47
 196 0018 13B1     		cbz	r3, .L10
 103:Core/Src/tasks.c ****     {
 104:Core/Src/tasks.c ****         //HAL_IWDG_Refresh(&hiwdg);
 105:Core/Src/tasks.c ****         
 106:Core/Src/tasks.c ****         G_500mStask = 0;
 197              		.loc 1 106 9 is_stmt 1 view .LVU48
 198              		.loc 1 106 21 is_stmt 0 view .LVU49
 199 001a 224B     		ldr	r3, .L19+12
 200 001c 0022     		movs	r2, #0
 201 001e 1A70     		strb	r2, [r3]
 202              	.L10:
 107:Core/Src/tasks.c ****     }
 108:Core/Src/tasks.c **** }
 203              		.loc 1 108 1 view .LVU50
 204 0020 10BD     		pop	{r4, pc}
 205              	.L16:
  74:Core/Src/tasks.c ****         throttleHandler();
 206              		.loc 1 74 9 is_stmt 1 view .LVU51
ARM GAS  /tmp/ccpKoqpo.s 			page 7


 207 0022 FFF7FEFF 		bl	vcuState
 208              	.LVL1:
  75:Core/Src/tasks.c ****         canIOsend();
 209              		.loc 1 75 9 view .LVU52
 210 0026 FFF7FEFF 		bl	throttleHandler
 211              	.LVL2:
  76:Core/Src/tasks.c ****         regenHandler();
 212              		.loc 1 76 9 view .LVU53
 213 002a FFF7FEFF 		bl	canIOsend
 214              	.LVL3:
  77:Core/Src/tasks.c ****         brakeHandler();
 215              		.loc 1 77 9 view .LVU54
 216 002e FFF7FEFF 		bl	regenHandler
 217              	.LVL4:
  78:Core/Src/tasks.c ****         dcdcHandler(vcu.state);
 218              		.loc 1 78 9 view .LVU55
 219 0032 FFF7FEFF 		bl	brakeHandler
 220              	.LVL5:
  79:Core/Src/tasks.c ****         G_10mStask = 0;
 221              		.loc 1 79 9 view .LVU56
  79:Core/Src/tasks.c ****         G_10mStask = 0;
 222              		.loc 1 79 24 is_stmt 0 view .LVU57
 223 0036 1C4B     		ldr	r3, .L19+16
 224 0038 1879     		ldrb	r0, [r3, #4]	@ zero_extendqisi2
  79:Core/Src/tasks.c ****         G_10mStask = 0;
 225              		.loc 1 79 9 view .LVU58
 226 003a FFF7FEFF 		bl	dcdcHandler
 227              	.LVL6:
  80:Core/Src/tasks.c ****     }
 228              		.loc 1 80 9 is_stmt 1 view .LVU59
  80:Core/Src/tasks.c ****     }
 229              		.loc 1 80 20 is_stmt 0 view .LVU60
 230 003e 164B     		ldr	r3, .L19
 231 0040 0022     		movs	r2, #0
 232 0042 1A70     		strb	r2, [r3]
 233 0044 E0E7     		b	.L11
 234              	.L17:
  85:Core/Src/tasks.c ****         updateTach(ldu.amps);
 235              		.loc 1 85 9 is_stmt 1 view .LVU61
 236 0046 194C     		ldr	r4, .L19+20
 237 0048 2088     		ldrh	r0, [r4]
 238 004a 80B2     		uxth	r0, r0
 239 004c FFF7FEFF 		bl	updateSpeed
 240              	.LVL7:
  86:Core/Src/tasks.c ****         ioHandler();
 241              		.loc 1 86 9 view .LVU62
 242 0050 6089     		ldrh	r0, [r4, #10]
 243 0052 80B2     		uxth	r0, r0
 244 0054 FFF7FEFF 		bl	updateTach
 245              	.LVL8:
  87:Core/Src/tasks.c ****         HAL_GPIO_TogglePin(LED_GPIO_Port, LED_Pin);
 246              		.loc 1 87 9 view .LVU63
 247 0058 FFF7FEFF 		bl	ioHandler
 248              	.LVL9:
  88:Core/Src/tasks.c ****         G_100mStask = 0;
 249              		.loc 1 88 9 view .LVU64
 250 005c 4FF40051 		mov	r1, #8192
ARM GAS  /tmp/ccpKoqpo.s 			page 8


 251 0060 1348     		ldr	r0, .L19+24
 252 0062 FFF7FEFF 		bl	HAL_GPIO_TogglePin
 253              	.LVL10:
  89:Core/Src/tasks.c ****     }
 254              		.loc 1 89 9 view .LVU65
  89:Core/Src/tasks.c ****     }
 255              		.loc 1 89 21 is_stmt 0 view .LVU66
 256 0066 0D4B     		ldr	r3, .L19+4
 257 0068 0022     		movs	r2, #0
 258 006a 1A70     		strb	r2, [r3]
 259 006c CFE7     		b	.L12
 260              	.L18:
  94:Core/Src/tasks.c ****         updateTemp(ldu.hsTemp);
 261              		.loc 1 94 9 is_stmt 1 view .LVU67
 262 006e 0F4C     		ldr	r4, .L19+20
 263 0070 6189     		ldrh	r1, [r4, #10]
 264 0072 89B2     		uxth	r1, r1
 265 0074 0F4B     		ldr	r3, .L19+28
 266 0076 187A     		ldrb	r0, [r3, #8]	@ zero_extendqisi2
 267 0078 FFF7FEFF 		bl	updateSOC
 268              	.LVL11:
  95:Core/Src/tasks.c ****         vehicleComms();
 269              		.loc 1 95 9 view .LVU68
 270 007c A088     		ldrh	r0, [r4, #4]
 271 007e 80B2     		uxth	r0, r0
 272 0080 FFF7FEFF 		bl	updateTemp
 273              	.LVL12:
  96:Core/Src/tasks.c ****         encoderHandler();
 274              		.loc 1 96 9 view .LVU69
 275 0084 FFF7FEFF 		bl	vehicleComms
 276              	.LVL13:
  97:Core/Src/tasks.c ****         wpHandler();
 277              		.loc 1 97 9 view .LVU70
 278 0088 FFF7FEFF 		bl	encoderHandler
 279              	.LVL14:
  98:Core/Src/tasks.c ****         G_250mStask = 0;
 280              		.loc 1 98 9 view .LVU71
 281 008c FFF7FEFF 		bl	wpHandler
 282              	.LVL15:
  99:Core/Src/tasks.c ****     }
 283              		.loc 1 99 9 view .LVU72
  99:Core/Src/tasks.c ****     }
 284              		.loc 1 99 21 is_stmt 0 view .LVU73
 285 0090 034B     		ldr	r3, .L19+8
 286 0092 0022     		movs	r2, #0
 287 0094 1A70     		strb	r2, [r3]
 288 0096 BDE7     		b	.L13
 289              	.L20:
 290              		.align	2
 291              	.L19:
 292 0098 00000000 		.word	.LANCHOR3
 293 009c 00000000 		.word	.LANCHOR4
 294 00a0 00000000 		.word	.LANCHOR5
 295 00a4 00000000 		.word	.LANCHOR1
 296 00a8 00000000 		.word	vcu
 297 00ac 00000000 		.word	ldu
 298 00b0 00100140 		.word	1073811456
ARM GAS  /tmp/ccpKoqpo.s 			page 9


 299 00b4 00000000 		.word	BMS
 300              		.cfi_endproc
 301              	.LFE69:
 303              		.global	G_500mStask
 304              		.global	G_250mStask
 305              		.global	G_100mStask
 306              		.global	G_10mStask
 307              		.global	G_mSCounter
 308              		.comm	waterPWM,400,4
 309              		.comm	socPWM,4000,4
 310              		.comm	tempPWM,400,4
 311              		.comm	canDebug,4,4
 312              		.comm	txCycle2,4,4
 313              		.comm	txCycle,4,4
 314              		.comm	canTx2,8,4
 315              		.comm	canTx,8,4
 316              		.comm	canMailbox2,4,4
 317              		.comm	canMailbox,4,4
 318              		.comm	canRx2,8,4
 319              		.comm	canRx,8,4
 320              		.comm	txMsgExt2,24,4
 321              		.comm	txMsg2,24,4
 322              		.comm	rxMsg2,28,4
 323              		.comm	txMsgExt,24,4
 324              		.comm	txMsg,24,4
 325              		.comm	rxMsg,28,4
 326              		.comm	sf5,40,4
 327              		.comm	sf4,40,4
 328              		.comm	sf3,40,4
 329              		.comm	sf2,40,4
 330              		.comm	sf,40,4
 331              		.comm	hcan2,40,4
 332              		.comm	hcan1,40,4
 333              		.comm	LIDAR,8,4
 334              		.comm	te,12,4
 335              		.comm	taskTime,32,4
 336              		.comm	BMS,20,4
 337              		.comm	charger,3,4
 338              		.comm	vcu,7,4
 339              		.comm	iboost,2,4
 340              		.comm	ldu,18,4
 341              		.comm	tempdata,4,4
 342              		.comm	ADC_data,12,4
 343              		.comm	tenderActive,1,1
 344              		.comm	time_now,4,4
 345              		.comm	period,4,4
 346              		.comm	DCDC,4,4
 347              		.section	.bss.G_100mStask,"aw",%nobits
 348              		.set	.LANCHOR4,. + 0
 351              	G_100mStask:
 352 0000 00       		.space	1
 353              		.section	.bss.G_10mStask,"aw",%nobits
 354              		.set	.LANCHOR3,. + 0
 357              	G_10mStask:
 358 0000 00       		.space	1
 359              		.section	.bss.G_250mStask,"aw",%nobits
 360              		.set	.LANCHOR5,. + 0
ARM GAS  /tmp/ccpKoqpo.s 			page 10


 363              	G_250mStask:
 364 0000 00       		.space	1
 365              		.section	.bss.G_500mStask,"aw",%nobits
 366              		.set	.LANCHOR1,. + 0
 369              	G_500mStask:
 370 0000 00       		.space	1
 371              		.section	.bss.G_mSCounter,"aw",%nobits
 372              		.align	2
 373              		.set	.LANCHOR0,. + 0
 376              	G_mSCounter:
 377 0000 00000000 		.space	4
 378              		.section	.bss.cpt2.7780,"aw",%nobits
 379              		.align	1
 380              		.set	.LANCHOR2,. + 0
 383              	cpt2.7780:
 384 0000 0000     		.space	2
 385              		.text
 386              	.Letext0:
 387              		.file 2 "/usr/lib/gcc/arm-none-eabi/9.2.1/include/stdint.h"
 388              		.file 3 "Drivers/CMSIS/Include/core_cm3.h"
 389              		.file 4 "Drivers/CMSIS/Device/ST/STM32F1xx/Include/system_stm32f1xx.h"
 390              		.file 5 "Drivers/CMSIS/Device/ST/STM32F1xx/Include/stm32f105xc.h"
 391              		.file 6 "Drivers/CMSIS/Device/ST/STM32F1xx/Include/stm32f1xx.h"
 392              		.file 7 "Drivers/STM32F1xx_HAL_Driver/Inc/stm32f1xx_hal_def.h"
 393              		.file 8 "Drivers/STM32F1xx_HAL_Driver/Inc/stm32f1xx_hal_dma.h"
 394              		.file 9 "Drivers/STM32F1xx_HAL_Driver/Inc/stm32f1xx_hal_can.h"
 395              		.file 10 "Drivers/STM32F1xx_HAL_Driver/Inc/stm32f1xx_hal_iwdg.h"
 396              		.file 11 "Drivers/STM32F1xx_HAL_Driver/Inc/stm32f1xx_hal_tim.h"
 397              		.file 12 "Drivers/STM32F1xx_HAL_Driver/Inc/stm32f1xx_hal.h"
 398              		.file 13 "/usr/lib/gcc/arm-none-eabi/9.2.1/include/stddef.h"
 399              		.file 14 "/usr/include/newlib/sys/_types.h"
 400              		.file 15 "/usr/include/newlib/sys/reent.h"
 401              		.file 16 "/usr/include/newlib/sys/lock.h"
 402              		.file 17 "Core/Inc/dcdc.h"
 403              		.file 18 "Core/Inc/vcu.h"
 404              		.file 19 "Core/Inc/encoder.h"
 405              		.file 20 "Core/Inc/lidar.h"
 406              		.file 21 "Core/Inc/can_setup.h"
 407              		.file 22 "Core/Inc/gauges.h"
 408              		.file 23 "Core/Inc/water_pump.h"
 409              		.file 24 "Drivers/STM32F1xx_HAL_Driver/Inc/stm32f1xx_hal_gpio.h"
ARM GAS  /tmp/ccpKoqpo.s 			page 11


DEFINED SYMBOLS
                            *ABS*:0000000000000000 tasks.c
     /tmp/ccpKoqpo.s:16     .text.HAL_TIM_PeriodElapsedCallback:0000000000000000 $t
     /tmp/ccpKoqpo.s:24     .text.HAL_TIM_PeriodElapsedCallback:0000000000000000 HAL_TIM_PeriodElapsedCallback
     /tmp/ccpKoqpo.s:139    .text.HAL_TIM_PeriodElapsedCallback:0000000000000090 $d
     /tmp/ccpKoqpo.s:153    .text.taskHandler:0000000000000000 $t
     /tmp/ccpKoqpo.s:160    .text.taskHandler:0000000000000000 taskHandler
     /tmp/ccpKoqpo.s:292    .text.taskHandler:0000000000000098 $d
                            *COM*:0000000000000007 vcu
                            *COM*:0000000000000012 ldu
                            *COM*:0000000000000014 BMS
     /tmp/ccpKoqpo.s:369    .bss.G_500mStask:0000000000000000 G_500mStask
     /tmp/ccpKoqpo.s:363    .bss.G_250mStask:0000000000000000 G_250mStask
     /tmp/ccpKoqpo.s:351    .bss.G_100mStask:0000000000000000 G_100mStask
     /tmp/ccpKoqpo.s:357    .bss.G_10mStask:0000000000000000 G_10mStask
     /tmp/ccpKoqpo.s:376    .bss.G_mSCounter:0000000000000000 G_mSCounter
                            *COM*:0000000000000190 waterPWM
                            *COM*:0000000000000fa0 socPWM
                            *COM*:0000000000000190 tempPWM
                            *COM*:0000000000000004 canDebug
                            *COM*:0000000000000004 txCycle2
                            *COM*:0000000000000004 txCycle
                            *COM*:0000000000000008 canTx2
                            *COM*:0000000000000008 canTx
                            *COM*:0000000000000004 canMailbox2
                            *COM*:0000000000000004 canMailbox
                            *COM*:0000000000000008 canRx2
                            *COM*:0000000000000008 canRx
                            *COM*:0000000000000018 txMsgExt2
                            *COM*:0000000000000018 txMsg2
                            *COM*:000000000000001c rxMsg2
                            *COM*:0000000000000018 txMsgExt
                            *COM*:0000000000000018 txMsg
                            *COM*:000000000000001c rxMsg
                            *COM*:0000000000000028 sf5
                            *COM*:0000000000000028 sf4
                            *COM*:0000000000000028 sf3
                            *COM*:0000000000000028 sf2
                            *COM*:0000000000000028 sf
                            *COM*:0000000000000028 hcan2
                            *COM*:0000000000000028 hcan1
                            *COM*:0000000000000008 LIDAR
                            *COM*:000000000000000c te
                            *COM*:0000000000000020 taskTime
                            *COM*:0000000000000003 charger
                            *COM*:0000000000000002 iboost
                            *COM*:0000000000000004 tempdata
                            *COM*:000000000000000c ADC_data
                            *COM*:0000000000000001 tenderActive
                            *COM*:0000000000000004 time_now
                            *COM*:0000000000000004 period
                            *COM*:0000000000000004 DCDC
     /tmp/ccpKoqpo.s:352    .bss.G_100mStask:0000000000000000 $d
     /tmp/ccpKoqpo.s:358    .bss.G_10mStask:0000000000000000 $d
     /tmp/ccpKoqpo.s:364    .bss.G_250mStask:0000000000000000 $d
     /tmp/ccpKoqpo.s:370    .bss.G_500mStask:0000000000000000 $d
     /tmp/ccpKoqpo.s:372    .bss.G_mSCounter:0000000000000000 $d
ARM GAS  /tmp/ccpKoqpo.s 			page 12


     /tmp/ccpKoqpo.s:379    .bss.cpt2.7780:0000000000000000 $d
     /tmp/ccpKoqpo.s:383    .bss.cpt2.7780:0000000000000000 cpt2.7780

UNDEFINED SYMBOLS
htim6
vcuState
throttleHandler
canIOsend
regenHandler
brakeHandler
dcdcHandler
updateSpeed
updateTach
ioHandler
HAL_GPIO_TogglePin
updateSOC
updateTemp
vehicleComms
encoderHandler
wpHandler
