ARM GAS  /tmp/ccmnX85E.s 			page 1


   1              		.cpu cortex-m3
   2              		.eabi_attribute 20, 1
   3              		.eabi_attribute 21, 1
   4              		.eabi_attribute 23, 3
   5              		.eabi_attribute 24, 1
   6              		.eabi_attribute 25, 1
   7              		.eabi_attribute 26, 1
   8              		.eabi_attribute 30, 1
   9              		.eabi_attribute 34, 1
  10              		.eabi_attribute 18, 4
  11              		.file	"test.c"
  12              		.text
  13              	.Ltext0:
  14              		.cfi_sections	.debug_frame
  15              		.section	.text.testVal,"ax",%progbits
  16              		.align	1
  17              		.global	testVal
  18              		.arch armv7-m
  19              		.syntax unified
  20              		.thumb
  21              		.thumb_func
  22              		.fpu softvfp
  24              	testVal:
  25              	.LFB68:
  26              		.file 1 "Core/Src/test.c"
   1:Core/Src/test.c **** #include "test.h"
   2:Core/Src/test.c **** 
   3:Core/Src/test.c **** void testVal(void)
   4:Core/Src/test.c **** {
  27              		.loc 1 4 1 view -0
  28              		.cfi_startproc
  29              		@ args = 0, pretend = 0, frame = 0
  30              		@ frame_needed = 0, uses_anonymous_args = 0
  31              		@ link register save eliminated.
   5:Core/Src/test.c **** #ifdef ACTIVE
   6:Core/Src/test.c **** 
   7:Core/Src/test.c ****     if (ldu.amps < 1200)
  32              		.loc 1 7 5 view .LVU1
  33              		.loc 1 7 12 is_stmt 0 view .LVU2
  34 0000 194B     		ldr	r3, .L6
  35 0002 5B89     		ldrh	r3, [r3, #10]
  36 0004 9BB2     		uxth	r3, r3
  37              		.loc 1 7 8 view .LVU3
  38 0006 B3F5966F 		cmp	r3, #1200
  39 000a 05D2     		bcs	.L2
   8:Core/Src/test.c ****     {
   9:Core/Src/test.c ****         ldu.amps += 5;
  40              		.loc 1 9 9 is_stmt 1 view .LVU4
  41              		.loc 1 9 18 is_stmt 0 view .LVU5
  42 000c 164A     		ldr	r2, .L6
  43 000e 5389     		ldrh	r3, [r2, #10]
  44 0010 9BB2     		uxth	r3, r3
  45 0012 0533     		adds	r3, r3, #5
  46 0014 9BB2     		uxth	r3, r3
  47 0016 5381     		strh	r3, [r2, #10]	@ movhi
  48              	.L2:
  10:Core/Src/test.c ****     }
ARM GAS  /tmp/ccmnX85E.s 			page 2


  11:Core/Src/test.c ****     if (ldu.amps >= 1200)
  49              		.loc 1 11 5 is_stmt 1 view .LVU6
  50              		.loc 1 11 12 is_stmt 0 view .LVU7
  51 0018 134B     		ldr	r3, .L6
  52 001a 5B89     		ldrh	r3, [r3, #10]
  53 001c 9BB2     		uxth	r3, r3
  54              		.loc 1 11 8 view .LVU8
  55 001e B3F5966F 		cmp	r3, #1200
  56 0022 02D3     		bcc	.L3
  12:Core/Src/test.c ****     {
  13:Core/Src/test.c ****         ldu.amps = 0;
  57              		.loc 1 13 9 is_stmt 1 view .LVU9
  58              		.loc 1 13 18 is_stmt 0 view .LVU10
  59 0024 104B     		ldr	r3, .L6
  60 0026 0022     		movs	r2, #0
  61 0028 5A81     		strh	r2, [r3, #10]	@ movhi
  62              	.L3:
  14:Core/Src/test.c ****     }
  15:Core/Src/test.c **** 
  16:Core/Src/test.c ****     if (ldu.rpm < 18000)
  63              		.loc 1 16 5 is_stmt 1 view .LVU11
  64              		.loc 1 16 12 is_stmt 0 view .LVU12
  65 002a 0F4B     		ldr	r3, .L6
  66 002c 1B88     		ldrh	r3, [r3]
  67 002e 9BB2     		uxth	r3, r3
  68              		.loc 1 16 8 view .LVU13
  69 0030 44F24F62 		movw	r2, #17999
  70 0034 9342     		cmp	r3, r2
  71 0036 05D8     		bhi	.L4
  17:Core/Src/test.c ****     {
  18:Core/Src/test.c ****         ldu.rpm += 70;
  72              		.loc 1 18 9 is_stmt 1 view .LVU14
  73              		.loc 1 18 17 is_stmt 0 view .LVU15
  74 0038 0B4A     		ldr	r2, .L6
  75 003a 1388     		ldrh	r3, [r2]
  76 003c 9BB2     		uxth	r3, r3
  77 003e 4633     		adds	r3, r3, #70
  78 0040 9BB2     		uxth	r3, r3
  79 0042 1380     		strh	r3, [r2]	@ movhi
  80              	.L4:
  19:Core/Src/test.c ****     }
  20:Core/Src/test.c ****     if (ldu.rpm >= 18000)
  81              		.loc 1 20 5 is_stmt 1 view .LVU16
  82              		.loc 1 20 12 is_stmt 0 view .LVU17
  83 0044 084B     		ldr	r3, .L6
  84 0046 1B88     		ldrh	r3, [r3]
  85 0048 9BB2     		uxth	r3, r3
  86              		.loc 1 20 8 view .LVU18
  87 004a 44F24F62 		movw	r2, #17999
  88 004e 9342     		cmp	r3, r2
  89 0050 02D9     		bls	.L5
  21:Core/Src/test.c ****     {
  22:Core/Src/test.c ****         ldu.rpm = 0;
  90              		.loc 1 22 9 is_stmt 1 view .LVU19
  91              		.loc 1 22 17 is_stmt 0 view .LVU20
  92 0052 054B     		ldr	r3, .L6
  93 0054 0022     		movs	r2, #0
ARM GAS  /tmp/ccmnX85E.s 			page 3


  94 0056 1A80     		strh	r2, [r3]	@ movhi
  95              	.L5:
  23:Core/Src/test.c ****     }
  24:Core/Src/test.c **** 
  25:Core/Src/test.c ****     ldu.hsTemp = 60;
  96              		.loc 1 25 5 is_stmt 1 view .LVU21
  97              		.loc 1 25 16 is_stmt 0 view .LVU22
  98 0058 034B     		ldr	r3, .L6
  99 005a 3C22     		movs	r2, #60
 100 005c 9A80     		strh	r2, [r3, #4]	@ movhi
  26:Core/Src/test.c ****     BMS[0].chargeState = 55;
 101              		.loc 1 26 5 is_stmt 1 view .LVU23
 102              		.loc 1 26 24 is_stmt 0 view .LVU24
 103 005e 034B     		ldr	r3, .L6+4
 104 0060 3722     		movs	r2, #55
 105 0062 1A72     		strb	r2, [r3, #8]
  27:Core/Src/test.c **** 
  28:Core/Src/test.c **** #endif // ACTIVE
  29:Core/Src/test.c **** 
  30:Core/Src/test.c **** #ifdef PASSIVE
  31:Core/Src/test.c ****     ldu.amps = 600;
  32:Core/Src/test.c ****     ldu.hsTemp = 40;
  33:Core/Src/test.c ****     ldu.rpm = 4500;
  34:Core/Src/test.c ****     BMS[0].soc = 55;
  35:Core/Src/test.c **** #endif //PASSIVE
  36:Core/Src/test.c **** }
 106              		.loc 1 36 1 view .LVU25
 107 0064 7047     		bx	lr
 108              	.L7:
 109 0066 00BF     		.align	2
 110              	.L6:
 111 0068 00000000 		.word	ldu
 112 006c 00000000 		.word	BMS
 113              		.cfi_endproc
 114              	.LFE68:
 116              		.comm	canDebug,4,4
 117              		.comm	txCycle2,4,4
 118              		.comm	txCycle,4,4
 119              		.comm	canTx2,8,4
 120              		.comm	canTx,8,4
 121              		.comm	canMailbox2,4,4
 122              		.comm	canMailbox,4,4
 123              		.comm	canRx2,8,4
 124              		.comm	canRx,8,4
 125              		.comm	txMsgExt2,24,4
 126              		.comm	txMsg2,24,4
 127              		.comm	rxMsg2,28,4
 128              		.comm	txMsgExt,24,4
 129              		.comm	txMsg,24,4
 130              		.comm	rxMsg,28,4
 131              		.comm	sf5,40,4
 132              		.comm	sf4,40,4
 133              		.comm	sf3,40,4
 134              		.comm	sf2,40,4
 135              		.comm	sf,40,4
 136              		.comm	hcan2,40,4
 137              		.comm	hcan1,40,4
ARM GAS  /tmp/ccmnX85E.s 			page 4


 138              		.comm	LIDAR,8,4
 139              		.comm	te,12,4
 140              		.comm	taskTime,32,4
 141              		.comm	BMS,20,4
 142              		.comm	charger,3,4
 143              		.comm	vcu,7,4
 144              		.comm	iboost,2,4
 145              		.comm	ldu,18,4
 146              		.comm	tempdata,4,4
 147              		.comm	ADC_data,12,4
 148              		.comm	tenderActive,1,1
 149              		.comm	time_now,4,4
 150              		.comm	period,4,4
 151              		.comm	DCDC,4,4
 152              		.text
 153              	.Letext0:
 154              		.file 2 "/usr/lib/gcc/arm-none-eabi/9.2.1/include/stdint.h"
 155              		.file 3 "Drivers/CMSIS/Include/core_cm3.h"
 156              		.file 4 "Drivers/CMSIS/Device/ST/STM32F1xx/Include/system_stm32f1xx.h"
 157              		.file 5 "Drivers/CMSIS/Device/ST/STM32F1xx/Include/stm32f105xc.h"
 158              		.file 6 "Drivers/CMSIS/Device/ST/STM32F1xx/Include/stm32f1xx.h"
 159              		.file 7 "Drivers/STM32F1xx_HAL_Driver/Inc/stm32f1xx_hal_can.h"
 160              		.file 8 "Drivers/STM32F1xx_HAL_Driver/Inc/stm32f1xx_hal.h"
 161              		.file 9 "/usr/lib/gcc/arm-none-eabi/9.2.1/include/stddef.h"
 162              		.file 10 "/usr/include/newlib/sys/_types.h"
 163              		.file 11 "/usr/include/newlib/sys/reent.h"
 164              		.file 12 "/usr/include/newlib/sys/lock.h"
 165              		.file 13 "Core/Inc/dcdc.h"
 166              		.file 14 "Core/Inc/vcu.h"
 167              		.file 15 "Core/Inc/encoder.h"
 168              		.file 16 "Core/Inc/lidar.h"
 169              		.file 17 "Core/Inc/can_setup.h"
ARM GAS  /tmp/ccmnX85E.s 			page 5


DEFINED SYMBOLS
                            *ABS*:0000000000000000 test.c
     /tmp/ccmnX85E.s:16     .text.testVal:0000000000000000 $t
     /tmp/ccmnX85E.s:24     .text.testVal:0000000000000000 testVal
     /tmp/ccmnX85E.s:111    .text.testVal:0000000000000068 $d
                            *COM*:0000000000000012 ldu
                            *COM*:0000000000000014 BMS
                            *COM*:0000000000000004 canDebug
                            *COM*:0000000000000004 txCycle2
                            *COM*:0000000000000004 txCycle
                            *COM*:0000000000000008 canTx2
                            *COM*:0000000000000008 canTx
                            *COM*:0000000000000004 canMailbox2
                            *COM*:0000000000000004 canMailbox
                            *COM*:0000000000000008 canRx2
                            *COM*:0000000000000008 canRx
                            *COM*:0000000000000018 txMsgExt2
                            *COM*:0000000000000018 txMsg2
                            *COM*:000000000000001c rxMsg2
                            *COM*:0000000000000018 txMsgExt
                            *COM*:0000000000000018 txMsg
                            *COM*:000000000000001c rxMsg
                            *COM*:0000000000000028 sf5
                            *COM*:0000000000000028 sf4
                            *COM*:0000000000000028 sf3
                            *COM*:0000000000000028 sf2
                            *COM*:0000000000000028 sf
                            *COM*:0000000000000028 hcan2
                            *COM*:0000000000000028 hcan1
                            *COM*:0000000000000008 LIDAR
                            *COM*:000000000000000c te
                            *COM*:0000000000000020 taskTime
                            *COM*:0000000000000003 charger
                            *COM*:0000000000000007 vcu
                            *COM*:0000000000000002 iboost
                            *COM*:0000000000000004 tempdata
                            *COM*:000000000000000c ADC_data
                            *COM*:0000000000000001 tenderActive
                            *COM*:0000000000000004 time_now
                            *COM*:0000000000000004 period
                            *COM*:0000000000000004 DCDC

NO UNDEFINED SYMBOLS
